---
triple:          'arm64-apple-darwin'
binary-path:     '/Users/mohammedismailsameer/Documents/Bolddesk/bolddesk-mobile-app/syncfusion-bolddesk-mobile-app/flutter_framework_output/Release/iphoneos/Release-iphoneos/super_native_extensions/super_native_extensions.framework/super_native_extensions'
relocations:
  - { offset: 0x3D06, size: 0x8, addend: 0x0, symName: __ZN5alloc7raw_vec12handle_error17h9e0c1d518fe96bd1E, symObjAddr: 0x4FDC, symBinAddr: 0x84090, symSize: 0x14 }
  - { offset: 0x3D6C, size: 0x8, addend: 0x0, symName: __ZN5alloc7raw_vec12handle_error17h9e0c1d518fe96bd1E, symObjAddr: 0x4FDC, symBinAddr: 0x84090, symSize: 0x14 }
  - { offset: 0x3DAA, size: 0x8, addend: 0x0, symName: __ZN5alloc7raw_vec17capacity_overflow17h7bf3c62c5cd38abdE, symObjAddr: 0x4FF0, symBinAddr: 0x8F40, symSize: 0x38 }
  - { offset: 0x3EF7, size: 0x8, addend: 0x0, symName: '__ZN5alloc7raw_vec19RawVec$LT$T$C$A$GT$8grow_one17h3721cba00edc1f43E', symObjAddr: 0x5930, symBinAddr: 0x97CC, symSize: 0x9C }
  - { offset: 0x4028, size: 0x8, addend: 0x0, symName: '__ZN5alloc7raw_vec19RawVec$LT$T$C$A$GT$7reserve21do_reserve_and_handle17h1a0e972685d2caf0E', symObjAddr: 0x5040, symBinAddr: 0x840BC, symSize: 0x9C }
  - { offset: 0x4144, size: 0x8, addend: 0x0, symName: __ZN5alloc7raw_vec11finish_grow17hf8525e6ffc90fa95E, symObjAddr: 0x50DC, symBinAddr: 0x8F78, symSize: 0x90 }
  - { offset: 0x41EA, size: 0x8, addend: 0x0, symName: __ZN5alloc5alloc18handle_alloc_error17hf7af452d915a4b61E, symObjAddr: 0x5028, symBinAddr: 0x840A4, symSize: 0x18 }
  - { offset: 0x42C7, size: 0x8, addend: 0x0, symName: '__ZN72_$LT$$RF$str$u20$as$u20$alloc..ffi..c_str..CString..new..SpecNewImpl$GT$13spec_new_impl17h87aff9d2fc6f4416E', symObjAddr: 0x516C, symBinAddr: 0x9008, symSize: 0xF0 }
  - { offset: 0x4448, size: 0x8, addend: 0x0, symName: __ZN5alloc3ffi5c_str7CString19_from_vec_unchecked17h1831e54293a9dcb5E, symObjAddr: 0x525C, symBinAddr: 0x90F8, symSize: 0x120 }
  - { offset: 0x483A, size: 0x8, addend: 0x0, symName: __ZN5alloc6string6String15from_utf8_lossy17h86681db29e4ceea6E, symObjAddr: 0x5390, symBinAddr: 0x922C, symSize: 0x20C }
  - { offset: 0x4D52, size: 0x8, addend: 0x0, symName: '__ZN58_$LT$alloc..string..String$u20$as$u20$core..fmt..Write$GT$9write_str17h66397e8869c81ea8E', symObjAddr: 0x5758, symBinAddr: 0x95F4, symSize: 0x78 }
  - { offset: 0x4E6A, size: 0x8, addend: 0x0, symName: '__ZN58_$LT$alloc..string..String$u20$as$u20$core..fmt..Write$GT$10write_char17hf975c7b3bfbf111eE', symObjAddr: 0x57D0, symBinAddr: 0x966C, symSize: 0x144 }
  - { offset: 0x5057, size: 0x8, addend: 0x0, symName: '__ZN60_$LT$alloc..string..String$u20$as$u20$core..clone..Clone$GT$5clone17h3e1c315ef352bfc4E', symObjAddr: 0x59CC, symBinAddr: 0x9868, symSize: 0x80 }
  - { offset: 0x5170, size: 0x8, addend: 0x0, symName: '__ZN98_$LT$alloc..string..String$u20$as$u20$core..convert..From$LT$alloc..borrow..Cow$LT$str$GT$$GT$$GT$4from17h3df8a95d3971e292E', symObjAddr: 0x5A4C, symBinAddr: 0x98E8, symSize: 0xA0 }
  - { offset: 0x52CC, size: 0x8, addend: 0x0, symName: __ZN5alloc3fmt6format12format_inner17h804d7f2c5e75ce4bE, symObjAddr: 0x559C, symBinAddr: 0x9438, symSize: 0x174 }
  - { offset: 0x55FF, size: 0x8, addend: 0x0, symName: __ZN4core3fmt5Write9write_fmt17hc8adfe8844cf85b6E, symObjAddr: 0x5914, symBinAddr: 0x97B0, symSize: 0x1C }
  - { offset: 0x5633, size: 0x8, addend: 0x0, symName: '__ZN53_$LT$core..fmt..Error$u20$as$u20$core..fmt..Debug$GT$3fmt17hca8f5181382c5f39E', symObjAddr: 0x5710, symBinAddr: 0x95AC, symSize: 0x24 }
  - { offset: 0x57DA, size: 0x8, addend: 0x0, symName: '__ZN4core3ptr42drop_in_place$LT$alloc..string..String$GT$17hc9756c88f670e321E', symObjAddr: 0x5734, symBinAddr: 0x95D0, symSize: 0x24 }
  - { offset: 0x592E, size: 0x8, addend: 0x0, symName: '__ZN5alloc3ffi5c_str40_$LT$impl$u20$core..ffi..c_str..CStr$GT$15to_string_lossy17h7e5d5dbfc5a95bdeE', symObjAddr: 0x537C, symBinAddr: 0x9218, symSize: 0x14 }
  - { offset: 0x64E4C, size: 0x8, addend: 0x0, symName: __ZN9hashbrown3raw11Fallibility17capacity_overflow17h31dd87359165d36aE, symObjAddr: 0x106D0, symBinAddr: 0x13DA0, symSize: 0x38 }
  - { offset: 0x64E87, size: 0x8, addend: 0x0, symName: __ZN9hashbrown3raw11Fallibility17capacity_overflow17h31dd87359165d36aE, symObjAddr: 0x106D0, symBinAddr: 0x13DA0, symSize: 0x38 }
  - { offset: 0x6518E, size: 0x8, addend: 0x0, symName: ___rust_start_panic, symObjAddr: 0x22B28, symBinAddr: 0x252EC, symSize: 0xC }
  - { offset: 0x651A0, size: 0x8, addend: 0x0, symName: ___rust_start_panic, symObjAddr: 0x22B28, symBinAddr: 0x252EC, symSize: 0xC }
  - { offset: 0x651BB, size: 0x8, addend: 0x0, symName: __ZN11panic_abort18__rust_start_panic5abort17h43edaf7613509aa9E, symObjAddr: 0x22B34, symBinAddr: 0x252F8, symSize: 0xC }
  - { offset: 0x59489, size: 0x8, addend: 0x0, symName: __ZN4core9panicking9panic_fmt17h6461f4087531700eE, symObjAddr: 0x5CD4, symBinAddr: 0x84178, symSize: 0x30 }
  - { offset: 0x594D9, size: 0x8, addend: 0x0, symName: __ZN4core3fmt9Formatter12pad_integral17he7ffae3d52b663a5E, symObjAddr: 0x5EE0, symBinAddr: 0x9C8C, symSize: 0x290 }
  - { offset: 0x597FD, size: 0x8, addend: 0x0, symName: __ZN4core3fmt9Formatter3pad17h469a5768c4897635E, symObjAddr: 0x64F0, symBinAddr: 0xA24C, symSize: 0x37C }
  - { offset: 0x59D05, size: 0x8, addend: 0x0, symName: __ZN4core3fmt9Formatter26debug_struct_field1_finish17heaeb8436f7db5d79E, symObjAddr: 0xB328, symBinAddr: 0xEC88, symSize: 0xD8 }
  - { offset: 0x59DD2, size: 0x8, addend: 0x0, symName: __ZN4core3fmt9Formatter26debug_struct_field2_finish17h0da1e752bb1cfe42E, symObjAddr: 0xB400, symBinAddr: 0xED60, symSize: 0x10C }
  - { offset: 0x59E9F, size: 0x8, addend: 0x0, symName: __ZN4core3fmt9Formatter25debug_tuple_field1_finish17hbfc13e0eeba8ff58E, symObjAddr: 0xB50C, symBinAddr: 0xEE6C, symSize: 0xE0 }
  - { offset: 0x59F5E, size: 0x8, addend: 0x0, symName: __ZN4core3fmt9Formatter25debug_tuple_field2_finish17h960f4aa288bef4f7E, symObjAddr: 0xB5EC, symBinAddr: 0xEF4C, symSize: 0x104 }
  - { offset: 0x5A01E, size: 0x8, addend: 0x0, symName: __ZN4core3fmt9Formatter19pad_formatted_parts17h7ac2b27c1dc775c6E, symObjAddr: 0xDB58, symBinAddr: 0x11408, symSize: 0x218 }
  - { offset: 0x5A1EB, size: 0x8, addend: 0x0, symName: __ZN4core3fmt9Formatter21write_formatted_parts17hff4852b73babb67bE, symObjAddr: 0xDD70, symBinAddr: 0x11620, symSize: 0x238 }
  - { offset: 0x5A421, size: 0x8, addend: 0x0, symName: '__ZN4core3fmt3num3imp52_$LT$impl$u20$core..fmt..Display$u20$for$u20$u64$GT$3fmt17h12b91e61f79bc3eeE', symObjAddr: 0x5DA4, symBinAddr: 0x9B50, symSize: 0x13C }
  - { offset: 0x5A4C5, size: 0x8, addend: 0x0, symName: '__ZN4core3fmt3num3imp52_$LT$impl$u20$core..fmt..Display$u20$for$u20$u32$GT$3fmt17h0797180ced5fc01fE', symObjAddr: 0x9914, symBinAddr: 0xD4EC, symSize: 0x13C }
  - { offset: 0x5A57C, size: 0x8, addend: 0x0, symName: '__ZN4core3fmt3num3imp51_$LT$impl$u20$core..fmt..Display$u20$for$u20$u8$GT$3fmt17he90d56d7df4ba450E', symObjAddr: 0xAAE0, symBinAddr: 0xE5D4, symSize: 0xB0 }
  - { offset: 0x5A61C, size: 0x8, addend: 0x0, symName: '__ZN4core3fmt3num3imp52_$LT$impl$u20$core..fmt..Display$u20$for$u20$i32$GT$3fmt17ha130e714f373558cE', symObjAddr: 0xE880, symBinAddr: 0x12130, symSize: 0x14C }
  - { offset: 0x5A6BA, size: 0x8, addend: 0x0, symName: '__ZN4core3fmt3num3imp52_$LT$impl$u20$core..fmt..Display$u20$for$u20$i64$GT$3fmt17h8f579412bc272bf3E', symObjAddr: 0xE9CC, symBinAddr: 0x1227C, symSize: 0x148 }
  - { offset: 0x5A879, size: 0x8, addend: 0x0, symName: '__ZN4core3fmt3num50_$LT$impl$u20$core..fmt..Debug$u20$for$u20$u32$GT$3fmt17he0c506a5f90be19dE', symObjAddr: 0x9A64, symBinAddr: 0xD63C, symSize: 0x210 }
  - { offset: 0x5AA49, size: 0x8, addend: 0x0, symName: '__ZN4core3fmt3num52_$LT$impl$u20$core..fmt..Debug$u20$for$u20$usize$GT$3fmt17h0c200cabaf266fe7E', symObjAddr: 0x9C74, symBinAddr: 0xD84C, symSize: 0x208 }
  - { offset: 0x5ABF5, size: 0x8, addend: 0x0, symName: '__ZN4core3fmt3num53_$LT$impl$u20$core..fmt..LowerHex$u20$for$u20$i16$GT$3fmt17h77ea7bea2d1dd1fbE', symObjAddr: 0x9F4C, symBinAddr: 0xDA9C, symSize: 0x9C }
  - { offset: 0x5ACD0, size: 0x8, addend: 0x0, symName: '__ZN4core3fmt3num53_$LT$impl$u20$core..fmt..LowerHex$u20$for$u20$i64$GT$3fmt17h46c56585cabc16ebE', symObjAddr: 0xAD84, symBinAddr: 0xE6F0, symSize: 0x9C }
  - { offset: 0x5ADB3, size: 0x8, addend: 0x0, symName: '__ZN4core3fmt3num52_$LT$impl$u20$core..fmt..UpperHex$u20$for$u20$i8$GT$3fmt17h3316e56c6ae71bacE', symObjAddr: 0xD110, symBinAddr: 0x10A2C, symSize: 0x9C }
  - { offset: 0x5AE96, size: 0x8, addend: 0x0, symName: '__ZN4core3fmt3num53_$LT$impl$u20$core..fmt..LowerHex$u20$for$u20$i32$GT$3fmt17h5b046b76488cee02E', symObjAddr: 0xD1AC, symBinAddr: 0x10AC8, symSize: 0x9C }
  - { offset: 0x5AF79, size: 0x8, addend: 0x0, symName: '__ZN4core3fmt3num52_$LT$impl$u20$core..fmt..LowerHex$u20$for$u20$i8$GT$3fmt17h94c3fc6d8cdbb5a0E', symObjAddr: 0xD248, symBinAddr: 0x10B64, symSize: 0x9C }
  - { offset: 0x5B05C, size: 0x8, addend: 0x0, symName: '__ZN4core3fmt3num53_$LT$impl$u20$core..fmt..UpperHex$u20$for$u20$i16$GT$3fmt17hc4c18c08cb9fc253E', symObjAddr: 0xE6AC, symBinAddr: 0x11F5C, symSize: 0x9C }
  - { offset: 0x5B137, size: 0x8, addend: 0x0, symName: '__ZN4core3fmt3num53_$LT$impl$u20$core..fmt..UpperHex$u20$for$u20$i32$GT$3fmt17hdff543a5ceef78c3E', symObjAddr: 0xE748, symBinAddr: 0x11FF8, symSize: 0x9C }
  - { offset: 0x5B21A, size: 0x8, addend: 0x0, symName: '__ZN4core3fmt3num53_$LT$impl$u20$core..fmt..UpperHex$u20$for$u20$i64$GT$3fmt17h0a871d5cd77185a5E', symObjAddr: 0xE7E4, symBinAddr: 0x12094, symSize: 0x9C }
  - { offset: 0x5B316, size: 0x8, addend: 0x0, symName: __ZN4core3fmt9Formatter12pad_integral12write_prefix17h6ebfc62f3644518fE, symObjAddr: 0x6424, symBinAddr: 0xA1D0, symSize: 0x7C }
  - { offset: 0x5B373, size: 0x8, addend: 0x0, symName: '__ZN44_$LT$$RF$T$u20$as$u20$core..fmt..Display$GT$3fmt17h03d94b09c991c884E', symObjAddr: 0x69BC, symBinAddr: 0xA5C8, symSize: 0x1C }
  - { offset: 0x5B3A9, size: 0x8, addend: 0x0, symName: '__ZN42_$LT$$RF$T$u20$as$u20$core..fmt..Debug$GT$3fmt17hb29fece8d0c03ec0E', symObjAddr: 0x69D8, symBinAddr: 0xA5E4, symSize: 0x1C }
  - { offset: 0x5B3C3, size: 0x8, addend: 0x0, symName: '__ZN42_$LT$$RF$T$u20$as$u20$core..fmt..Debug$GT$3fmt17h7c63b3a09ca1aba9E', symObjAddr: 0x6BF4, symBinAddr: 0xA800, symSize: 0x20C }
  - { offset: 0x5B56C, size: 0x8, addend: 0x0, symName: '__ZN59_$LT$core..fmt..Arguments$u20$as$u20$core..fmt..Display$GT$3fmt17h4a93b2f10ba05600E', symObjAddr: 0x69F4, symBinAddr: 0xA600, symSize: 0x18 }
  - { offset: 0x5B5DD, size: 0x8, addend: 0x0, symName: __ZN4core3fmt5write17he4e08ea2421faad4E, symObjAddr: 0x6A0C, symBinAddr: 0xA618, symSize: 0x1E8 }
  - { offset: 0x5B815, size: 0x8, addend: 0x0, symName: __ZN4core3fmt8builders11DebugStruct5field17h8e5a0bc21cef2d37E, symObjAddr: 0xA604, symBinAddr: 0xE154, symSize: 0x1BC }
  - { offset: 0x5BA18, size: 0x8, addend: 0x0, symName: __ZN4core3fmt8builders11DebugStruct21finish_non_exhaustive17h50d9f759a9cd3481E, symObjAddr: 0xAE2C, symBinAddr: 0xE78C, symSize: 0xCC }
  - { offset: 0x5BB2D, size: 0x8, addend: 0x0, symName: __ZN4core3fmt8builders11DebugStruct6finish17h0a2005141e35c4a4E, symObjAddr: 0xAEF8, symBinAddr: 0xE858, symSize: 0x8C }
  - { offset: 0x5BC73, size: 0x8, addend: 0x0, symName: '__ZN68_$LT$core..fmt..builders..PadAdapter$u20$as$u20$core..fmt..Write$GT$9write_str17h99c1f19e14283ae7E', symObjAddr: 0xA7C0, symBinAddr: 0xE310, symSize: 0x228 }
  - { offset: 0x5BE8A, size: 0x8, addend: 0x0, symName: '__ZN68_$LT$core..fmt..builders..PadAdapter$u20$as$u20$core..fmt..Write$GT$10write_char17hb63018dfbf25f827E', symObjAddr: 0xA9E8, symBinAddr: 0xE538, symSize: 0x80 }
  - { offset: 0x5BED8, size: 0x8, addend: 0x0, symName: __ZN4core3fmt8builders10DebugTuple5field17he6938299cf6526edE, symObjAddr: 0xAF84, symBinAddr: 0xE8E4, symSize: 0x154 }
  - { offset: 0x5C062, size: 0x8, addend: 0x0, symName: __ZN4core3fmt8builders10DebugTuple6finish17hfdd38dc1c9028fb7E, symObjAddr: 0xB0D8, symBinAddr: 0xEA38, symSize: 0xC0 }
  - { offset: 0x5C17D, size: 0x8, addend: 0x0, symName: __ZN4core3fmt8builders8DebugSet5entry17h16a4581f2cf099a3E, symObjAddr: 0xB198, symBinAddr: 0xEAF8, symSize: 0x154 }
  - { offset: 0x5C326, size: 0x8, addend: 0x0, symName: __ZN4core3fmt8builders9DebugList6finish17h05505a1ee6ad26deE, symObjAddr: 0xB2EC, symBinAddr: 0xEC4C, symSize: 0x3C }
  - { offset: 0x5C3B9, size: 0x8, addend: 0x0, symName: __ZN4core3fmt5Write9write_fmt17ha8feb0696bc0f6cdE, symObjAddr: 0xAA68, symBinAddr: 0xE5B8, symSize: 0x1C }
  - { offset: 0x5C40D, size: 0x8, addend: 0x0, symName: '__ZN40_$LT$str$u20$as$u20$core..fmt..Debug$GT$3fmt17h2f5bbedadc0811a2E', symObjAddr: 0xB6F0, symBinAddr: 0xF050, symSize: 0x338 }
  - { offset: 0x5C952, size: 0x8, addend: 0x0, symName: '__ZN41_$LT$char$u20$as$u20$core..fmt..Debug$GT$3fmt17hec6656f4aa0273aaE', symObjAddr: 0xBFF0, symBinAddr: 0xF944, symSize: 0xAC }
  - { offset: 0x5CA4F, size: 0x8, addend: 0x0, symName: '__ZN43_$LT$char$u20$as$u20$core..fmt..Display$GT$3fmt17h22c788f79faac305E', symObjAddr: 0xC4E4, symBinAddr: 0xFE38, symSize: 0xF0 }
  - { offset: 0x5CAD4, size: 0x8, addend: 0x0, symName: __ZN4core3fmt17pointer_fmt_inner17hb6e6755353573ca7E, symObjAddr: 0xC5D4, symBinAddr: 0xFF28, symSize: 0xE4 }
  - { offset: 0x5CBF0, size: 0x8, addend: 0x0, symName: __ZN4core3fmt5float29float_to_decimal_common_exact17hcb8d3da805d2ddb4E, symObjAddr: 0xD43C, symBinAddr: 0x10CEC, symSize: 0x2F8 }
  - { offset: 0x5CCE4, size: 0x8, addend: 0x0, symName: __ZN4core3fmt5float32float_to_decimal_common_shortest17h92b619ff919af53cE, symObjAddr: 0xD734, symBinAddr: 0x10FE4, symSize: 0x21C }
  - { offset: 0x5CDE4, size: 0x8, addend: 0x0, symName: __ZN4core3fmt5float36float_to_exponential_common_shortest17hece93452adc0b0feE, symObjAddr: 0xD950, symBinAddr: 0x11200, symSize: 0x208 }
  - { offset: 0x5CEE4, size: 0x8, addend: 0x0, symName: __ZN4core3fmt5float29float_to_decimal_common_exact17hce0e5649a93ff32cE, symObjAddr: 0xDFA8, symBinAddr: 0x11858, symSize: 0x2F0 }
  - { offset: 0x5CFC3, size: 0x8, addend: 0x0, symName: __ZN4core3fmt5float32float_to_decimal_common_shortest17h17acdf637dbcaf27E, symObjAddr: 0xE298, symBinAddr: 0x11B48, symSize: 0x214 }
  - { offset: 0x5D0AE, size: 0x8, addend: 0x0, symName: __ZN4core3fmt5float36float_to_exponential_common_shortest17h70ddeb903aa854c4E, symObjAddr: 0xE4AC, symBinAddr: 0x11D5C, symSize: 0x200 }
  - { offset: 0x5D1CE, size: 0x8, addend: 0x0, symName: '__ZN70_$LT$core..panic..location..Location$u20$as$u20$core..fmt..Display$GT$3fmt17h19b8cd231d3a4614E', symObjAddr: 0xAC44, symBinAddr: 0xE684, symSize: 0x6C }
  - { offset: 0x5D296, size: 0x8, addend: 0x0, symName: __ZN4core9panicking9panic_fmt17h6461f4087531700eE, symObjAddr: 0x5CD4, symBinAddr: 0x84178, symSize: 0x30 }
  - { offset: 0x5D2C4, size: 0x8, addend: 0x0, symName: __ZN4core9panicking18panic_bounds_check17h8e4322f8ea7d2dbbE, symObjAddr: 0x5D54, symBinAddr: 0x841F8, symSize: 0x50 }
  - { offset: 0x5D2F3, size: 0x8, addend: 0x0, symName: __ZN4core9panicking5panic17h19518c0daa80afccE, symObjAddr: 0x686C, symBinAddr: 0x84298, symSize: 0x34 }
  - { offset: 0x5D321, size: 0x8, addend: 0x0, symName: __ZN4core9panicking13assert_failed17h5cf0a845dd05c7a4E, symObjAddr: 0x68A0, symBinAddr: 0x842CC, symSize: 0x38 }
  - { offset: 0x5D33C, size: 0x8, addend: 0x0, symName: __ZN4core9panicking19assert_failed_inner17h17758fbaf98efc64E, symObjAddr: 0x68D8, symBinAddr: 0x84304, symSize: 0xE4 }
  - { offset: 0x5D384, size: 0x8, addend: 0x0, symName: __ZN4core9panicking11panic_const23panic_const_div_by_zero17hc205480403531da5E, symObjAddr: 0x90F8, symBinAddr: 0x843E8, symSize: 0x34 }
  - { offset: 0x5D3B2, size: 0x8, addend: 0x0, symName: __ZN4core9panicking11panic_const23panic_const_rem_by_zero17h795e7ea6bac90a30E, symObjAddr: 0xD3D0, symBinAddr: 0x846D8, symSize: 0x38 }
  - { offset: 0x5D3E1, size: 0x8, addend: 0x0, symName: __ZN4core9panicking11panic_const28panic_const_async_fn_resumed17he549d200c3951f46E, symObjAddr: 0xD408, symBinAddr: 0x84710, symSize: 0x34 }
  - { offset: 0x5D42F, size: 0x8, addend: 0x0, symName: __ZN4core9panicking18panic_nounwind_fmt17h28cf8620a708db9bE, symObjAddr: 0xACB0, symBinAddr: 0x845B4, symSize: 0x38 }
  - { offset: 0x5D472, size: 0x8, addend: 0x0, symName: __ZN4core9panicking19panic_cannot_unwind17hb9fd807402cdce34E, symObjAddr: 0xACE8, symBinAddr: 0x845EC, symSize: 0xC }
  - { offset: 0x5D48C, size: 0x8, addend: 0x0, symName: __ZN4core9panicking14panic_nounwind17h23f9ec7786b388ceE, symObjAddr: 0xACF4, symBinAddr: 0x845F8, symSize: 0x48 }
  - { offset: 0x5D4BB, size: 0x8, addend: 0x0, symName: __ZN4core9panicking26panic_nounwind_nobacktrace17hf04ffe378c4bb0e5E, symObjAddr: 0xAD3C, symBinAddr: 0x84640, symSize: 0x48 }
  - { offset: 0x5D4EA, size: 0x8, addend: 0x0, symName: __ZN4core9panicking16panic_in_cleanup17hb573db368f6edd8eE, symObjAddr: 0xAE20, symBinAddr: 0x84688, symSize: 0xC }
  - { offset: 0x5D51B, size: 0x8, addend: 0x0, symName: __ZN4core5slice5index26slice_start_index_len_fail17h36094f981ad049a5E, symObjAddr: 0x5D04, symBinAddr: 0x841A8, symSize: 0x50 }
  - { offset: 0x5D56A, size: 0x8, addend: 0x0, symName: __ZN4core5slice5index24slice_end_index_len_fail17hee89e7ae3e117989E, symObjAddr: 0x64A0, symBinAddr: 0x84248, symSize: 0x50 }
  - { offset: 0x5D93F, size: 0x8, addend: 0x0, symName: __ZN4core5slice5index22slice_index_order_fail17h2dc2b2070b77efcdE, symObjAddr: 0xAB90, symBinAddr: 0x84500, symSize: 0x50 }
  - { offset: 0x5DD2B, size: 0x8, addend: 0x0, symName: '__ZN70_$LT$core..slice..ascii..EscapeAscii$u20$as$u20$core..fmt..Display$GT$3fmt17hd1e57039bec1d14dE', symObjAddr: 0x9FE8, symBinAddr: 0xDB38, symSize: 0x2D0 }
  - { offset: 0x5E25B, size: 0x8, addend: 0x0, symName: __ZN4core5slice6memchr14memchr_aligned17h5066bac3e68aab54E, symObjAddr: 0xC6B8, symBinAddr: 0x1000C, symSize: 0xEC }
  - { offset: 0x5E350, size: 0x8, addend: 0x0, symName: __ZN4core5slice4sort6shared9smallsort22panic_on_ord_violation17h459b3b13a6a5d31eE, symObjAddr: 0xC7A4, symBinAddr: 0x100F8, symSize: 0x38 }
  - { offset: 0x5E9E5, size: 0x8, addend: 0x0, symName: __ZN4core3str5count14do_count_chars17h1f27e149e0c0221eE, symObjAddr: 0x6170, symBinAddr: 0x9F1C, symSize: 0x2B4 }
  - { offset: 0x5EF13, size: 0x8, addend: 0x0, symName: __ZN4core3str6traits23str_index_overflow_fail17h3f3c7c7434dd9b11E, symObjAddr: 0xC7DC, symBinAddr: 0x846A0, symSize: 0x38 }
  - { offset: 0x5EF48, size: 0x8, addend: 0x0, symName: __ZN4core3str8converts9from_utf817h143e715d6329ec89E, symObjAddr: 0xA3B8, symBinAddr: 0xDF08, symSize: 0x24C }
  - { offset: 0x5F04A, size: 0x8, addend: 0x0, symName: __ZN4core3str7pattern11StrSearcher3new17hd212958721318a41E, symObjAddr: 0xC814, symBinAddr: 0x10130, symSize: 0x70C }
  - { offset: 0x5F2C9, size: 0x8, addend: 0x0, symName: __ZN4core3str16slice_error_fail17h722d2360c7a2e2caE, symObjAddr: 0xBC88, symBinAddr: 0x84694, symSize: 0xC }
  - { offset: 0x5F2E2, size: 0x8, addend: 0x0, symName: __ZN4core3str19slice_error_fail_rt17h178429c375993f81E, symObjAddr: 0xBC94, symBinAddr: 0xF5E8, symSize: 0x35C }
  - { offset: 0x5F5F9, size: 0x8, addend: 0x0, symName: '__ZN87_$LT$core..str..lossy..Utf8Chunks$u20$as$u20$core..iter..traits..iterator..Iterator$GT$4next17hdb8220c2ab9daacbE', symObjAddr: 0xCF20, symBinAddr: 0x1083C, symSize: 0x1F0 }
  - { offset: 0x5FAF8, size: 0x8, addend: 0x0, symName: __ZN4core6result13unwrap_failed17hd5e25f1b69adad6fE, symObjAddr: 0xAA84, symBinAddr: 0x844A4, symSize: 0x5C }
  - { offset: 0x5FBFE, size: 0x8, addend: 0x0, symName: __ZN4core3num6bignum8Big32x4010mul_digits17h18e7ffa368fd509bE, symObjAddr: 0x6F74, symBinAddr: 0xAB80, symSize: 0x1F8 }
  - { offset: 0x5FF00, size: 0x8, addend: 0x0, symName: __ZN4core3num6bignum8Big32x408mul_pow217hd28153467ddf5ea1E, symObjAddr: 0x7D88, symBinAddr: 0xB994, symSize: 0x190 }
  - { offset: 0x60146, size: 0x8, addend: 0x0, symName: __ZN4core3num7flt2dec8strategy6dragon9mul_pow1017h4e8a0bd14df2c6aeE, symObjAddr: 0x6E00, symBinAddr: 0xAA0C, symSize: 0x174 }
  - { offset: 0x6032F, size: 0x8, addend: 0x0, symName: __ZN4core3num7flt2dec8strategy6dragon15format_shortest17h3d11d408aa76ff09E, symObjAddr: 0x716C, symBinAddr: 0xAD78, symSize: 0xC1C }
  - { offset: 0x61F41, size: 0x8, addend: 0x0, symName: __ZN4core3num7flt2dec8strategy6dragon12format_exact17h0eae9f86f3a26e17E, symObjAddr: 0x7F18, symBinAddr: 0xBB24, symSize: 0xAB8 }
  - { offset: 0x6371B, size: 0x8, addend: 0x0, symName: __ZN4core3num7flt2dec8strategy5grisu19format_shortest_opt17hdf2650a974b87f4fE, symObjAddr: 0x89D0, symBinAddr: 0xC5DC, symSize: 0x728 }
  - { offset: 0x6382A, size: 0x8, addend: 0x0, symName: __ZN4core3num7flt2dec8strategy5grisu16format_exact_opt17h9efd8366aae028a5E, symObjAddr: 0x912C, symBinAddr: 0xCD04, symSize: 0x404 }
  - { offset: 0x6388E, size: 0x8, addend: 0x0, symName: __ZN4core3num7flt2dec8strategy5grisu16format_exact_opt14possibly_round17hc375d55fab2ad373E, symObjAddr: 0x9530, symBinAddr: 0xD108, symSize: 0x1B8 }
  - { offset: 0x63A08, size: 0x8, addend: 0x0, symName: __ZN4core3num7flt2dec17digits_to_dec_str17h0b0d1554c70d21b0E, symObjAddr: 0x96E8, symBinAddr: 0xD2C0, symSize: 0x12C }
  - { offset: 0x63AA3, size: 0x8, addend: 0x0, symName: __ZN4core3num7flt2dec17digits_to_exp_str17hcd658aff9a0000f2E, symObjAddr: 0x9814, symBinAddr: 0xD3EC, symSize: 0x100 }
  - { offset: 0x63C4F, size: 0x8, addend: 0x0, symName: '__ZN73_$LT$core..num..nonzero..NonZero$LT$T$GT$$u20$as$u20$core..fmt..Debug$GT$3fmt17h5e3178260f06d303E', symObjAddr: 0x9A50, symBinAddr: 0xD628, symSize: 0x14 }
  - { offset: 0x63D0F, size: 0x8, addend: 0x0, symName: '__ZN4core3num62_$LT$impl$u20$core..str..traits..FromStr$u20$for$u20$usize$GT$8from_str17h63b17411a431dff5E', symObjAddr: 0xD2E4, symBinAddr: 0x10C00, symSize: 0xEC }
  - { offset: 0x63F7F, size: 0x8, addend: 0x0, symName: __ZN4core6option13unwrap_failed17h9c6a2718da739f7eE, symObjAddr: 0xABE0, symBinAddr: 0x84550, symSize: 0x1C }
  - { offset: 0x63F99, size: 0x8, addend: 0x0, symName: __ZN4core6option13expect_failed17h26bb965ae1af0396E, symObjAddr: 0xABFC, symBinAddr: 0x8456C, symSize: 0x48 }
  - { offset: 0x640B1, size: 0x8, addend: 0x0, symName: '__ZN71_$LT$core..ops..range..Range$LT$Idx$GT$$u20$as$u20$core..fmt..Debug$GT$3fmt17hed651335f98d3224E', symObjAddr: 0xC09C, symBinAddr: 0xF9F0, symSize: 0x60 }
  - { offset: 0x642A4, size: 0x8, addend: 0x0, symName: '__ZN60_$LT$core..cell..BorrowError$u20$as$u20$core..fmt..Debug$GT$3fmt17h19e13f00b1c4ea10E', symObjAddr: 0x9E7C, symBinAddr: 0xDA54, symSize: 0x24 }
  - { offset: 0x64305, size: 0x8, addend: 0x0, symName: '__ZN63_$LT$core..cell..BorrowMutError$u20$as$u20$core..fmt..Debug$GT$3fmt17hf4837a3f85aba23dE', symObjAddr: 0x9EA0, symBinAddr: 0xDA78, symSize: 0x24 }
  - { offset: 0x64361, size: 0x8, addend: 0x0, symName: __ZN4core4cell22panic_already_borrowed17h06787ebf8e50b43bE, symObjAddr: 0x9EC4, symBinAddr: 0x8441C, symSize: 0x44 }
  - { offset: 0x64390, size: 0x8, addend: 0x0, symName: __ZN4core4cell30panic_already_mutably_borrowed17hb245e209d5bee7e1E, symObjAddr: 0x9F08, symBinAddr: 0x84460, symSize: 0x44 }
  - { offset: 0x644AE, size: 0x8, addend: 0x0, symName: __ZN4core3ffi5c_str4CStr19from_bytes_with_nul17he1e6d35b66cfe21dE, symObjAddr: 0xA2B8, symBinAddr: 0xDE08, symSize: 0x100 }
  - { offset: 0x645B2, size: 0x8, addend: 0x0, symName: '__ZN4core4char7methods22_$LT$impl$u20$char$GT$16escape_debug_ext17h4048921f7c2a283aE', symObjAddr: 0xBA28, symBinAddr: 0xF388, symSize: 0x260 }
  - { offset: 0x6478A, size: 0x8, addend: 0x0, symName: __ZN4core7unicode12unicode_data15grapheme_extend11lookup_slow17h167c21baf87dff96E, symObjAddr: 0xC3D4, symBinAddr: 0xFD28, symSize: 0x110 }
  - { offset: 0x64947, size: 0x8, addend: 0x0, symName: __ZN4core7unicode9printable12is_printable17h80752cc997b00098E, symObjAddr: 0xC0FC, symBinAddr: 0xFA50, symSize: 0x2D8 }
  - { offset: 0x5A70, size: 0x8, addend: 0x0, symName: _rust_eh_personality, symObjAddr: 0x29954, symBinAddr: 0x2BCD4, symSize: 0x334 }
  - { offset: 0x5AFE, size: 0x8, addend: 0x0, symName: '__ZN3std3sys3pal4unix2os6getenv28_$u7b$$u7b$closure$u7d$$u7d$17hc658ddf32ce01f89E', symObjAddr: 0x46BB8, symBinAddr: 0x484E0, symSize: 0x460 }
  - { offset: 0x63FE, size: 0x8, addend: 0x0, symName: '__ZN69_$LT$std..sys..pal..unix..stdio..Stderr$u20$as$u20$std..io..Write$GT$5write17h8de60dda8a53cad0E', symObjAddr: 0x4C468, symBinAddr: 0x4D88C, symSize: 0x4C }
  - { offset: 0x64D4, size: 0x8, addend: 0x0, symName: '__ZN69_$LT$std..sys..pal..unix..stdio..Stderr$u20$as$u20$std..io..Write$GT$14write_vectored17hb0b15208cc5033f7E', symObjAddr: 0x4C4B4, symBinAddr: 0x4D8D8, symSize: 0x4C }
  - { offset: 0x65AA, size: 0x8, addend: 0x0, symName: '__ZN69_$LT$std..sys..pal..unix..stdio..Stderr$u20$as$u20$std..io..Write$GT$17is_write_vectored17hdb78718b5fea34f8E', symObjAddr: 0x4C500, symBinAddr: 0x4D924, symSize: 0x14 }
  - { offset: 0x65C3, size: 0x8, addend: 0x0, symName: '__ZN69_$LT$std..sys..pal..unix..stdio..Stderr$u20$as$u20$std..io..Write$GT$5flush17h4deaf4a1077184a8E', symObjAddr: 0x4C514, symBinAddr: 0x4D938, symSize: 0x14 }
  - { offset: 0x660E, size: 0x8, addend: 0x0, symName: __ZN3std3sys3pal4unix4time8Timespec3now17h7fbe9fcc63889ee7E, symObjAddr: 0x2B578, symBinAddr: 0x2D364, symSize: 0x120 }
  - { offset: 0x66B8, size: 0x8, addend: 0x0, symName: __ZN3std3sys3pal4unix4time8Timespec12sub_timespec17h17f5e05dc96a60f8E, symObjAddr: 0x2B698, symBinAddr: 0x2D484, symSize: 0x10C }
  - { offset: 0x6835, size: 0x8, addend: 0x0, symName: __ZN3std3sys3pal4unix2fs4File6open_c17h21cc28d293b6dfc6E, symObjAddr: 0x46654, symBinAddr: 0x48034, symSize: 0x184 }
  - { offset: 0x6965, size: 0x8, addend: 0x0, symName: __ZN3std3sys3pal4unix2fs7readdir17h93dc5a159882137eE, symObjAddr: 0x301E4, symBinAddr: 0x31DDC, symSize: 0x190 }
  - { offset: 0x6C74, size: 0x8, addend: 0x0, symName: '__ZN91_$LT$std..sys..pal..unix..fs..ReadDir$u20$as$u20$core..iter..traits..iterator..Iterator$GT$4next17hd2055f20a5923caaE', symObjAddr: 0x30374, symBinAddr: 0x31F6C, symSize: 0x144 }
  - { offset: 0x6EEA, size: 0x8, addend: 0x0, symName: '__ZN70_$LT$std..sys..pal..unix..fs..Dir$u20$as$u20$core..ops..drop..Drop$GT$4drop17ha5c53b51d8ad7047E', symObjAddr: 0x3CE4C, symBinAddr: 0x3EA44, symSize: 0xC8 }
  - { offset: 0x6FCE, size: 0x8, addend: 0x0, symName: '__ZN3std3sys3pal4unix2fs6unlink28_$u7b$$u7b$closure$u7d$$u7d$17h355fac63ecb3f499E', symObjAddr: 0x4D6C4, symBinAddr: 0x4EAE8, symSize: 0x38 }
  - { offset: 0x7060, size: 0x8, addend: 0x0, symName: '__ZN3std3sys3pal4unix2fs6rename28_$u7b$$u7b$closure$u7d$$u7d$28_$u7b$$u7b$closure$u7d$$u7d$17h33ab1bff15e3f14cE', symObjAddr: 0x4D6FC, symBinAddr: 0x4EB20, symSize: 0x38 }
  - { offset: 0x70EE, size: 0x8, addend: 0x0, symName: '__ZN3std3sys3pal4unix2fs6rename28_$u7b$$u7b$closure$u7d$$u7d$17h7b42af3bd59682a0E', symObjAddr: 0x4D734, symBinAddr: 0x4EB58, symSize: 0xBC }
  - { offset: 0x7276, size: 0x8, addend: 0x0, symName: __ZN3std3sys3pal4unix4rand19hashmap_random_keys17h5813b7dfeba48d18E, symObjAddr: 0x4D7F0, symBinAddr: 0x4EC14, symSize: 0xA8 }
  - { offset: 0x7393, size: 0x8, addend: 0x0, symName: __ZN3std3sys3pal4unix6thread6Thread3new12thread_start17h92272ca226fb516fE, symObjAddr: 0x4D898, symBinAddr: 0x4ECBC, symSize: 0x6C }
  - { offset: 0x7622, size: 0x8, addend: 0x0, symName: __ZN3std3sys3pal6common14small_c_string24run_with_cstr_allocating17hf5a03ffa85deb856E, symObjAddr: 0x3CF14, symBinAddr: 0x86244, symSize: 0xA4 }
  - { offset: 0x76F9, size: 0x8, addend: 0x0, symName: __ZN3std3sys3pal6common14small_c_string24run_with_cstr_allocating17h31e4924eaff0930fE, symObjAddr: 0x467D8, symBinAddr: 0x8645C, symSize: 0xB8 }
  - { offset: 0x78BE, size: 0x8, addend: 0x0, symName: __ZN3std3sys3pal6common14small_c_string24run_with_cstr_allocating17hb0c7dc2e0c9e1e48E, symObjAddr: 0x47A70, symBinAddr: 0x866DC, symSize: 0x10C }
  - { offset: 0x7AA1, size: 0x8, addend: 0x0, symName: __ZN3std3sys3pal6common14small_c_string24run_with_cstr_allocating17h6c46ef3e7a98efa1E, symObjAddr: 0x47B7C, symBinAddr: 0x867E8, symSize: 0xB8 }
  - { offset: 0x7C72, size: 0x8, addend: 0x0, symName: _rust_eh_personality, symObjAddr: 0x29954, symBinAddr: 0x2BCD4, symSize: 0x334 }
  - { offset: 0x7F3B, size: 0x8, addend: 0x0, symName: '__ZN3std3sys11personality3gcc14find_eh_action28_$u7b$$u7b$closure$u7d$$u7d$17hdfc671cf18383ed4E', symObjAddr: 0x2B424, symBinAddr: 0x2D284, symSize: 0x18 }
  - { offset: 0x7F5B, size: 0x8, addend: 0x0, symName: '__ZN3std3sys11personality3gcc14find_eh_action28_$u7b$$u7b$closure$u7d$$u7d$17h4eb0abc31899766eE', symObjAddr: 0x2B454, symBinAddr: 0x2D2B4, symSize: 0x18 }
  - { offset: 0x7FAA, size: 0x8, addend: 0x0, symName: __ZN3std3sys11personality5dwarf2eh19read_encoded_offset17h952b6a5b7c3e050dE, symObjAddr: 0x2B2BC, symBinAddr: 0x2D11C, symSize: 0x150 }
  - { offset: 0x818E, size: 0x8, addend: 0x0, symName: __ZN3std3sys4sync4once5queue4Once4call17h118eb67701f86caaE, symObjAddr: 0x29EAC, symBinAddr: 0x85AC8, symSize: 0x380 }
  - { offset: 0x8A2B, size: 0x8, addend: 0x0, symName: '__ZN82_$LT$std..sys..sync..once..queue..WaiterQueue$u20$as$u20$core..ops..drop..Drop$GT$4drop17he90fef8a4f3aa837E', symObjAddr: 0x2A22C, symBinAddr: 0x2C220, symSize: 0xD0 }
  - { offset: 0x8C71, size: 0x8, addend: 0x0, symName: '__ZN102_$LT$std..sys..sync..mutex..pthread..AllocatedMutex$u20$as$u20$std..sys_common..lazy_box..LazyInit$GT$4init17h6fc901eb43fa093aE', symObjAddr: 0x2A8E4, symBinAddr: 0x2C77C, symSize: 0x1B4 }
  - { offset: 0x8E0F, size: 0x8, addend: 0x0, symName: '__ZN102_$LT$std..sys..sync..mutex..pthread..AllocatedMutex$u20$as$u20$std..sys_common..lazy_box..LazyInit$GT$7destroy17hf7827af28ace9f6eE', symObjAddr: 0x4D904, symBinAddr: 0x4ED28, symSize: 0x44 }
  - { offset: 0x8F02, size: 0x8, addend: 0x0, symName: __ZN3std3sys4sync5mutex7pthread5Mutex4lock4fail17hc380cd060199fa53E, symObjAddr: 0x2C984, symBinAddr: 0x86118, symSize: 0x70 }
  - { offset: 0x8FEC, size: 0x8, addend: 0x0, symName: __ZN3std3sys4sync6rwlock5queue6RwLock21read_unlock_contended17h0fa1b84ea4c16ad6E, symObjAddr: 0x47018, symBinAddr: 0x86514, symSize: 0x94 }
  - { offset: 0x91E0, size: 0x8, addend: 0x0, symName: __ZN3std3sys4sync6rwlock5queue6RwLock12unlock_queue17hcd6e098f677ab003E, symObjAddr: 0x47110, symBinAddr: 0x489A4, symSize: 0x1DC }
  - { offset: 0x9A12, size: 0x8, addend: 0x0, symName: __ZN3std3sys12thread_local6native5eager7destroy17h0cab816e59d41f82E, symObjAddr: 0x2A2FC, symBinAddr: 0x2C2F0, symSize: 0x44 }
  - { offset: 0x9B9B, size: 0x8, addend: 0x0, symName: '__ZN3std3sys12thread_local6native4lazy20Storage$LT$T$C$D$GT$10initialize17hedb77d8ab1ef5f01E', symObjAddr: 0x47F28, symBinAddr: 0x868A0, symSize: 0xA8 }
  - { offset: 0x9D32, size: 0x8, addend: 0x0, symName: __ZN3std3sys12thread_local6native4lazy7destroy17hc02757defbf7c879E, symObjAddr: 0x4805C, symBinAddr: 0x49550, symSize: 0x4C }
  - { offset: 0x9EE2, size: 0x8, addend: 0x0, symName: __ZN3std3sys12thread_local5guard5apple6enable9run_dtors17h1e321107b4eb95e5E, symObjAddr: 0x2A5F4, symBinAddr: 0x2C528, symSize: 0xD8 }
  - { offset: 0xA1B0, size: 0x8, addend: 0x0, symName: __ZN3std3sys12thread_local11destructors4list8register17h6c545da0a4ab0b3cE, symObjAddr: 0x2A340, symBinAddr: 0x2C334, symSize: 0x13C }
  - { offset: 0xA57C, size: 0x8, addend: 0x0, symName: __ZN3std3sys9backtrace15output_filename17hb13961f297ebcaa8E, symObjAddr: 0x2B9D8, symBinAddr: 0x2D7C4, symSize: 0x3F8 }
  - { offset: 0xA8A6, size: 0x8, addend: 0x0, symName: '__ZN3std3sys9backtrace10_print_fmt28_$u7b$$u7b$closure$u7d$$u7d$17h9b0a21cb422db53aE', symObjAddr: 0x47958, symBinAddr: 0x490B8, symSize: 0x30 }
  - { offset: 0xA8CE, size: 0x8, addend: 0x0, symName: '__ZN3std3sys9backtrace10_print_fmt28_$u7b$$u7b$closure$u7d$$u7d$17h3db0ae3e80ec389aE', symObjAddr: 0x48824, symBinAddr: 0x49C48, symSize: 0x2660 }
  - { offset: 0xF9DC, size: 0x8, addend: 0x0, symName: '__ZN3std3sys9backtrace10_print_fmt28_$u7b$$u7b$closure$u7d$$u7d$28_$u7b$$u7b$closure$u7d$$u7d$17hb4084842fcf3ddd7E', symObjAddr: 0x4AE84, symBinAddr: 0x4C2A8, symSize: 0x258 }
  - { offset: 0xFC30, size: 0x8, addend: 0x0, symName: '__ZN98_$LT$std..sys..backtrace..BacktraceLock..print..DisplayBacktrace$u20$as$u20$core..fmt..Display$GT$3fmt17h6e07ac9cbc84bbf7E', symObjAddr: 0x484F8, symBinAddr: 0x4991C, symSize: 0x31C }
  - { offset: 0x10398, size: 0x8, addend: 0x0, symName: __ZN3std3sys9backtrace26__rust_end_short_backtrace17hd94c1ab8ebbb033fE, symObjAddr: 0x4C630, symBinAddr: 0x4DA54, symSize: 0xC }
  - { offset: 0x103D1, size: 0x8, addend: 0x0, symName: __ZN3std5alloc24default_alloc_error_hook17he75b54975d944d7aE, symObjAddr: 0x4B528, symBinAddr: 0x4C94C, symSize: 0xE8 }
  - { offset: 0x104A5, size: 0x8, addend: 0x0, symName: __ZN3std5alloc8rust_oom17h0af4dfffa9f04d9eE, symObjAddr: 0x4D96C, symBinAddr: 0x4ED6C, symSize: 0x10 }
  - { offset: 0x104C4, size: 0x8, addend: 0x0, symName: ___rg_oom, symObjAddr: 0x4D97C, symBinAddr: 0x4ED7C, symSize: 0x18 }
  - { offset: 0x104E6, size: 0x8, addend: 0x0, symName: __ZN3std2io5Write9write_fmt17h8e35f44829a6d492E, symObjAddr: 0x29C88, symBinAddr: 0x2C008, symSize: 0xAC }
  - { offset: 0x10580, size: 0x8, addend: 0x0, symName: '__ZN80_$LT$std..io..Write..write_fmt..Adapter$LT$T$GT$$u20$as$u20$core..fmt..Write$GT$9write_str17h31dab265439b6921E', symObjAddr: 0x2B0DC, symBinAddr: 0x2CF3C, symSize: 0xFC }
  - { offset: 0x106EF, size: 0x8, addend: 0x0, symName: '__ZN80_$LT$std..io..Write..write_fmt..Adapter$LT$T$GT$$u20$as$u20$core..fmt..Write$GT$9write_str17he441cb999a8bc40cE', symObjAddr: 0x480F0, symBinAddr: 0x495E4, symSize: 0x78 }
  - { offset: 0x1080F, size: 0x8, addend: 0x0, symName: __ZN3std2io5Write18write_all_vectored17h47483ad9f773820eE, symObjAddr: 0x47C34, symBinAddr: 0x491D0, symSize: 0x1F4 }
  - { offset: 0x10B09, size: 0x8, addend: 0x0, symName: __ZN3std2io5Write18write_all_vectored17h872772c3ce7e5aa5E, symObjAddr: 0x4C110, symBinAddr: 0x4D534, symSize: 0x290 }
  - { offset: 0x10F63, size: 0x8, addend: 0x0, symName: __ZN3std2io5Write9write_fmt17hc87100d12aaf6dddE, symObjAddr: 0x4C3A0, symBinAddr: 0x4D7C4, symSize: 0xAC }
  - { offset: 0x10FED, size: 0x8, addend: 0x0, symName: __ZN3std2io5Write9write_all17hb811a6ea15642078E, symObjAddr: 0x4C528, symBinAddr: 0x4D94C, symSize: 0xDC }
  - { offset: 0x1121D, size: 0x8, addend: 0x0, symName: '__ZN58_$LT$std..io..error..Error$u20$as$u20$core..fmt..Debug$GT$3fmt17hd630b7331c47139eE', symObjAddr: 0x2AABC, symBinAddr: 0x2C954, symSize: 0x434 }
  - { offset: 0x11598, size: 0x8, addend: 0x0, symName: '__ZN62_$LT$std..io..error..ErrorKind$u20$as$u20$core..fmt..Debug$GT$3fmt17ha186853b9a7a271dE', symObjAddr: 0x2AF50, symBinAddr: 0x2CDE8, symSize: 0x3C }
  - { offset: 0x11688, size: 0x8, addend: 0x0, symName: '__ZN60_$LT$std..io..error..Error$u20$as$u20$core..fmt..Display$GT$3fmt17h48a933fd99048e11E', symObjAddr: 0x46960, symBinAddr: 0x48288, symSize: 0x200 }
  - { offset: 0x119AC, size: 0x8, addend: 0x0, symName: __ZN3std2io5stdio18set_output_capture17h6ca7626b3930ad0cE, symObjAddr: 0x47E28, symBinAddr: 0x493C4, symSize: 0x100 }
  - { offset: 0x11C52, size: 0x8, addend: 0x0, symName: '__ZN3std2io5impls74_$LT$impl$u20$std..io..Write$u20$for$u20$alloc..vec..Vec$LT$u8$C$A$GT$$GT$5write17h4b9233e7a0aa786dE', symObjAddr: 0x4BEB4, symBinAddr: 0x4D2D8, symSize: 0x7C }
  - { offset: 0x11D5C, size: 0x8, addend: 0x0, symName: '__ZN3std2io5impls74_$LT$impl$u20$std..io..Write$u20$for$u20$alloc..vec..Vec$LT$u8$C$A$GT$$GT$14write_vectored17haec7945611957b14E', symObjAddr: 0x4BF30, symBinAddr: 0x4D354, symSize: 0x140 }
  - { offset: 0x11F87, size: 0x8, addend: 0x0, symName: '__ZN3std2io5impls74_$LT$impl$u20$std..io..Write$u20$for$u20$alloc..vec..Vec$LT$u8$C$A$GT$$GT$17is_write_vectored17h2677b7c4a0a8f1ceE', symObjAddr: 0x4C070, symBinAddr: 0x4D494, symSize: 0x14 }
  - { offset: 0x11FA1, size: 0x8, addend: 0x0, symName: '__ZN3std2io5impls74_$LT$impl$u20$std..io..Write$u20$for$u20$alloc..vec..Vec$LT$u8$C$A$GT$$GT$5flush17hbf2c30360c4ba8cbE', symObjAddr: 0x4C084, symBinAddr: 0x4D4A8, symSize: 0x14 }
  - { offset: 0x11FBB, size: 0x8, addend: 0x0, symName: '__ZN3std2io5impls74_$LT$impl$u20$std..io..Write$u20$for$u20$alloc..vec..Vec$LT$u8$C$A$GT$$GT$9write_all17h42c9c1c53df5a063E', symObjAddr: 0x4C098, symBinAddr: 0x4D4BC, symSize: 0x78 }
  - { offset: 0x120EB, size: 0x8, addend: 0x0, symName: __ZN3std6thread6Thread9new_inner17h6794d587295e364dE, symObjAddr: 0x29D60, symBinAddr: 0x2C0D4, symSize: 0x14C }
  - { offset: 0x12467, size: 0x8, addend: 0x0, symName: '__ZN68_$LT$std..thread..local..AccessError$u20$as$u20$core..fmt..Debug$GT$3fmt17h2342c50972d757fcE', symObjAddr: 0x2AFC0, symBinAddr: 0x2CE58, symSize: 0x50 }
  - { offset: 0x1254C, size: 0x8, addend: 0x0, symName: __ZN3std6thread8ThreadId3new9exhausted17h80c4ddeb0d60d695E, symObjAddr: 0x2B010, symBinAddr: 0x85FA4, symSize: 0x38 }
  - { offset: 0x12587, size: 0x8, addend: 0x0, symName: __ZN3std6thread6scoped9ScopeData8overflow17ha505a012476f9827E, symObjAddr: 0x2B46C, symBinAddr: 0x85FDC, symSize: 0x40 }
  - { offset: 0x125B5, size: 0x8, addend: 0x0, symName: __ZN3std6thread6scoped9ScopeData29decrement_num_running_threads17hdd40322665d34a1cE, symObjAddr: 0x2B4AC, symBinAddr: 0x2D2CC, symSize: 0x60 }
  - { offset: 0x12767, size: 0x8, addend: 0x0, symName: '__ZN3std10sys_common8lazy_box16LazyBox$LT$T$GT$10initialize17h3bc27f7092ac9a6eE', symObjAddr: 0x2A7EC, symBinAddr: 0x85F48, symSize: 0x5C }
  - { offset: 0x12868, size: 0x8, addend: 0x0, symName: '__ZN3std10sys_common8lazy_box16LazyBox$LT$T$GT$10initialize17hc2d8a62b29578be5E', symObjAddr: 0x48358, symBinAddr: 0x86948, symSize: 0xC4 }
  - { offset: 0x12ABC, size: 0x8, addend: 0x0, symName: '__ZN79_$LT$std..backtrace_rs..symbolize..SymbolName$u20$as$u20$core..fmt..Display$GT$3fmt17h5acc6419e831c658E', symObjAddr: 0x2B7A4, symBinAddr: 0x2D590, symSize: 0x234 }
  - { offset: 0x12BFC, size: 0x8, addend: 0x0, symName: __ZN3std12backtrace_rs9symbolize5gimli4mmap17h821118abc61757deE, symObjAddr: 0x2CDCC, symBinAddr: 0x2E9C4, symSize: 0x1DC }
  - { offset: 0x12F92, size: 0x8, addend: 0x0, symName: __ZN3std12backtrace_rs9symbolize5gimli5macho11find_header17ha0dccc07d1c8ef60E, symObjAddr: 0x2D048, symBinAddr: 0x2EC40, symSize: 0x1CC }
  - { offset: 0x13643, size: 0x8, addend: 0x0, symName: __ZN3std12backtrace_rs9symbolize5gimli5macho6Object5parse17h14da38058934658bE, symObjAddr: 0x2D530, symBinAddr: 0x2F128, symSize: 0xB9C }
  - { offset: 0x15214, size: 0x8, addend: 0x0, symName: __ZN3std12backtrace_rs9symbolize5gimli5macho6Object7section17hbb9fea6bf275b88eE, symObjAddr: 0x3D010, symBinAddr: 0x3EB64, symSize: 0x14C }
  - { offset: 0x155C7, size: 0x8, addend: 0x0, symName: __ZN3std12backtrace_rs9symbolize5gimli7Context3new17h6d89a68ac89e1957E, symObjAddr: 0x2E0CC, symBinAddr: 0x2FCC4, symSize: 0x2118 }
  - { offset: 0x198F6, size: 0x8, addend: 0x0, symName: __ZN3std12backtrace_rs9symbolize5gimli7Context11find_frames17haa54f21c37563910E, symObjAddr: 0x30698, symBinAddr: 0x32290, symSize: 0x388 }
  - { offset: 0x19F23, size: 0x8, addend: 0x0, symName: __ZN3std12backtrace_rs9symbolize6Symbol4name17h9e038463937a24e9E, symObjAddr: 0x46890, symBinAddr: 0x481B8, symSize: 0xD0 }
  - { offset: 0x1A035, size: 0x8, addend: 0x0, symName: __ZN3std12backtrace_rs9backtrace9libunwind5trace8trace_fn17h7a641347eb95a71cE, symObjAddr: 0x46B7C, symBinAddr: 0x484A4, symSize: 0x3C }
  - { offset: 0x1A0C5, size: 0x8, addend: 0x0, symName: __ZN3std12backtrace_rs5print17BacktraceFrameFmt21print_raw_with_column17h9edc5c690a65e33eE, symObjAddr: 0x47464, symBinAddr: 0x48BC4, symSize: 0x4E0 }
  - { offset: 0x1A553, size: 0x8, addend: 0x0, symName: __ZN3std4path4Path5_join17h71c8a6f45955df03E, symObjAddr: 0x3053C, symBinAddr: 0x32134, symSize: 0x15C }
  - { offset: 0x1A99A, size: 0x8, addend: 0x0, symName: __ZN3std4path4Path9file_name17h2ac3b747ce22ce7bE, symObjAddr: 0x482C4, symBinAddr: 0x497B8, symSize: 0x64 }
  - { offset: 0x1A9B8, size: 0x8, addend: 0x0, symName: __ZN3std4path4Path9file_name17h2ac3b747ce22ce7bE, symObjAddr: 0x482C4, symBinAddr: 0x497B8, symSize: 0x64 }
  - { offset: 0x1A9CD, size: 0x8, addend: 0x0, symName: __ZN3std4path4Path9file_name17h2ac3b747ce22ce7bE, symObjAddr: 0x482C4, symBinAddr: 0x497B8, symSize: 0x64 }
  - { offset: 0x1AB22, size: 0x8, addend: 0x0, symName: __ZN3std4path10Components7as_path17h1128f36b79632e58E, symObjAddr: 0x2C120, symBinAddr: 0x2DF0C, symSize: 0x52C }
  - { offset: 0x1B00D, size: 0x8, addend: 0x0, symName: __ZN3std4path10Components25parse_next_component_back17h20ab235aa38f9988E, symObjAddr: 0x2C64C, symBinAddr: 0x2E438, symSize: 0x114 }
  - { offset: 0x1B20C, size: 0x8, addend: 0x0, symName: __ZN3std4path10Components15len_before_body17h416d1adc87dcd0d6E, symObjAddr: 0x2C760, symBinAddr: 0x2E54C, symSize: 0x15C }
  - { offset: 0x1B223, size: 0x8, addend: 0x0, symName: __ZN3std4path10Components15len_before_body17h416d1adc87dcd0d6E, symObjAddr: 0x2C760, symBinAddr: 0x2E54C, symSize: 0x15C }
  - { offset: 0x1B238, size: 0x8, addend: 0x0, symName: __ZN3std4path10Components15len_before_body17h416d1adc87dcd0d6E, symObjAddr: 0x2C760, symBinAddr: 0x2E54C, symSize: 0x15C }
  - { offset: 0x1B4BA, size: 0x8, addend: 0x0, symName: '__ZN80_$LT$std..path..Components$u20$as$u20$core..iter..traits..iterator..Iterator$GT$4next17he170f53951ab4284E', symObjAddr: 0x2BDD0, symBinAddr: 0x2DBBC, symSize: 0x350 }
  - { offset: 0x1B82F, size: 0x8, addend: 0x0, symName: '__ZN95_$LT$std..path..Components$u20$as$u20$core..iter..traits..double_ended..DoubleEndedIterator$GT$9next_back17h7b9f4406451174fbE', symObjAddr: 0x2D214, symBinAddr: 0x2EE0C, symSize: 0x31C }
  - { offset: 0x1B9F7, size: 0x8, addend: 0x0, symName: __ZN3std9panicking11panic_count17is_zero_slow_path17h9127750e85306114E, symObjAddr: 0x2C958, symBinAddr: 0x860EC, symSize: 0x2C }
  - { offset: 0x1BAC8, size: 0x8, addend: 0x0, symName: _rust_panic, symObjAddr: 0x482A4, symBinAddr: 0x49798, symSize: 0xC }
  - { offset: 0x1BAFD, size: 0x8, addend: 0x0, symName: '__ZN3std9panicking12default_hook28_$u7b$$u7b$closure$u7d$$u7d$17h5423069eaa907c60E', symObjAddr: 0x4BC48, symBinAddr: 0x4D06C, symSize: 0x26C }
  - { offset: 0x1BE8E, size: 0x8, addend: 0x0, symName: __ZN3std9panicking12default_hook17ha5bc641a0ba9a664E, symObjAddr: 0x4B610, symBinAddr: 0x4CA34, symSize: 0x638 }
  - { offset: 0x1CFB8, size: 0x8, addend: 0x0, symName: _rust_begin_unwind, symObjAddr: 0x4C604, symBinAddr: 0x4DA28, symSize: 0x2C }
  - { offset: 0x1CFED, size: 0x8, addend: 0x0, symName: '__ZN3std9panicking19begin_panic_handler28_$u7b$$u7b$closure$u7d$$u7d$17h7f4f159596a77c8bE', symObjAddr: 0x4C63C, symBinAddr: 0x4DA60, symSize: 0xBC }
  - { offset: 0x1D15D, size: 0x8, addend: 0x0, symName: '__ZN92_$LT$std..panicking..begin_panic_handler..StaticStrPayload$u20$as$u20$core..fmt..Display$GT$3fmt17h4dce73b7aeb80538E', symObjAddr: 0x4D09C, symBinAddr: 0x4E4C0, symSize: 0x20 }
  - { offset: 0x1D193, size: 0x8, addend: 0x0, symName: '__ZN99_$LT$std..panicking..begin_panic_handler..StaticStrPayload$u20$as$u20$core..panic..PanicPayload$GT$8take_box17hfc7d8f3994a9d54fE', symObjAddr: 0x4D0BC, symBinAddr: 0x4E4E0, symSize: 0x48 }
  - { offset: 0x1D248, size: 0x8, addend: 0x0, symName: '__ZN99_$LT$std..panicking..begin_panic_handler..StaticStrPayload$u20$as$u20$core..panic..PanicPayload$GT$3get17hb8d44dddc8a0e7e2E', symObjAddr: 0x4D104, symBinAddr: 0x4E528, symSize: 0x18 }
  - { offset: 0x1D262, size: 0x8, addend: 0x0, symName: '__ZN99_$LT$std..panicking..begin_panic_handler..StaticStrPayload$u20$as$u20$core..panic..PanicPayload$GT$6as_str17hb0692f0355320ec5E', symObjAddr: 0x4D11C, symBinAddr: 0x4E540, symSize: 0x18 }
  - { offset: 0x1D282, size: 0x8, addend: 0x0, symName: '__ZN95_$LT$std..panicking..begin_panic_handler..FormatStringPayload$u20$as$u20$core..fmt..Display$GT$3fmt17h45f698544f5f9834E', symObjAddr: 0x4D164, symBinAddr: 0x4E588, symSize: 0x5C }
  - { offset: 0x1D37B, size: 0x8, addend: 0x0, symName: '__ZN102_$LT$std..panicking..begin_panic_handler..FormatStringPayload$u20$as$u20$core..panic..PanicPayload$GT$8take_box17h67acdfe8f2f04397E', symObjAddr: 0x4D1C0, symBinAddr: 0x4E5E4, symSize: 0xFC }
  - { offset: 0x1D5F4, size: 0x8, addend: 0x0, symName: '__ZN102_$LT$std..panicking..begin_panic_handler..FormatStringPayload$u20$as$u20$core..panic..PanicPayload$GT$3get17hbb3f2523522a5529E', symObjAddr: 0x4D2BC, symBinAddr: 0x4E6E0, symSize: 0xA8 }
  - { offset: 0x1D743, size: 0x8, addend: 0x0, symName: __ZN3std9panicking20rust_panic_with_hook17hff8ab7378efed505E, symObjAddr: 0x4C6F8, symBinAddr: 0x4DB1C, symSize: 0x9A4 }
  - { offset: 0x1ECFF, size: 0x8, addend: 0x0, symName: __ZN3std9panicking14payload_as_str17h92490bb372fc89caE, symObjAddr: 0x4D608, symBinAddr: 0x4EA2C, symSize: 0xBC }
  - { offset: 0x1EF30, size: 0x8, addend: 0x0, symName: __ZN3std4sync7condvar7Condvar10notify_one17h7768540a7af36b09E, symObjAddr: 0x4841C, symBinAddr: 0x49840, symSize: 0x28 }
  - { offset: 0x1EFF3, size: 0x8, addend: 0x0, symName: __ZN3std2fs11OpenOptions5_open17hcc50713645a723ceE, symObjAddr: 0x47988, symBinAddr: 0x490E8, symSize: 0xE8 }
  - { offset: 0x1F166, size: 0x8, addend: 0x0, symName: __ZN3std4time7Instant7elapsed17h49a4e04ee3c5638dE, symObjAddr: 0x48444, symBinAddr: 0x49868, symSize: 0x60 }
  - { offset: 0x1F254, size: 0x8, addend: 0x0, symName: '__ZN88_$LT$std..time..Instant$u20$as$u20$core..ops..arith..Add$LT$core..time..Duration$GT$$GT$3add17hdc741ee0e4d62d7aE', symObjAddr: 0x484A4, symBinAddr: 0x498C8, symSize: 0x54 }
  - { offset: 0x1F272, size: 0x8, addend: 0x0, symName: '__ZN88_$LT$std..time..Instant$u20$as$u20$core..ops..arith..Add$LT$core..time..Duration$GT$$GT$3add17hdc741ee0e4d62d7aE', symObjAddr: 0x484A4, symBinAddr: 0x498C8, symSize: 0x54 }
  - { offset: 0x1F287, size: 0x8, addend: 0x0, symName: '__ZN88_$LT$std..time..Instant$u20$as$u20$core..ops..arith..Add$LT$core..time..Duration$GT$$GT$3add17hdc741ee0e4d62d7aE', symObjAddr: 0x484A4, symBinAddr: 0x498C8, symSize: 0x54 }
  - { offset: 0x1F29C, size: 0x8, addend: 0x0, symName: '__ZN88_$LT$std..time..Instant$u20$as$u20$core..ops..arith..Add$LT$core..time..Duration$GT$$GT$3add17hdc741ee0e4d62d7aE', symObjAddr: 0x484A4, symBinAddr: 0x498C8, symSize: 0x54 }
  - { offset: 0x1F2B1, size: 0x8, addend: 0x0, symName: '__ZN88_$LT$std..time..Instant$u20$as$u20$core..ops..arith..Add$LT$core..time..Duration$GT$$GT$3add17hdc741ee0e4d62d7aE', symObjAddr: 0x484A4, symBinAddr: 0x498C8, symSize: 0x54 }
  - { offset: 0x1F2C5, size: 0x8, addend: 0x0, symName: '__ZN88_$LT$std..time..Instant$u20$as$u20$core..ops..arith..Add$LT$core..time..Duration$GT$$GT$3add17hdc741ee0e4d62d7aE', symObjAddr: 0x484A4, symBinAddr: 0x498C8, symSize: 0x54 }
  - { offset: 0x1F2DA, size: 0x8, addend: 0x0, symName: '__ZN88_$LT$std..time..Instant$u20$as$u20$core..ops..arith..Add$LT$core..time..Duration$GT$$GT$3add17hdc741ee0e4d62d7aE', symObjAddr: 0x484A4, symBinAddr: 0x498C8, symSize: 0x54 }
  - { offset: 0x1FAF2, size: 0x8, addend: 0x0, symName: '__ZN4core3ptr81drop_in_place$LT$core..result..Result$LT$$LP$$RP$$C$std..io..error..Error$GT$$GT$17he77271fcf12bbc18E', symObjAddr: 0x29D34, symBinAddr: 0x2C0B4, symSize: 0x20 }
  - { offset: 0x20668, size: 0x8, addend: 0x0, symName: '__ZN4core3ptr44drop_in_place$LT$std..thread..PanicGuard$GT$17h1312448f04ad0e90E', symObjAddr: 0x2A5B0, symBinAddr: 0x2C4E4, symSize: 0x44 }
  - { offset: 0x2072F, size: 0x8, addend: 0x0, symName: '__ZN4core3ptr42drop_in_place$LT$std..io..error..Error$GT$17h66da0c864c23f321E', symObjAddr: 0x2A848, symBinAddr: 0x2C6E0, symSize: 0x9C }
  - { offset: 0x209D2, size: 0x8, addend: 0x0, symName: '__ZN4core3ptr92drop_in_place$LT$alloc..boxed..Box$LT$std..sys..sync..mutex..pthread..AllocatedMutex$GT$$GT$17h6bc4e095dc230eb4E', symObjAddr: 0x2AA98, symBinAddr: 0x2C930, symSize: 0x24 }
  - { offset: 0x20AA4, size: 0x8, addend: 0x0, symName: '__ZN4core3ptr42drop_in_place$LT$alloc..string..String$GT$17h2bdc281c3e06b9b4E', symObjAddr: 0x2AF0C, symBinAddr: 0x2CDA4, symSize: 0x24 }
  - { offset: 0x20B62, size: 0x8, addend: 0x0, symName: '__ZN4core3ptr44drop_in_place$LT$std..thread..ThreadName$GT$17hab820ca5e4f374ffE', symObjAddr: 0x2B084, symBinAddr: 0x2CEE4, symSize: 0x38 }
  - { offset: 0x20C39, size: 0x8, addend: 0x0, symName: '__ZN4core3ptr88drop_in_place$LT$std..io..Write..write_fmt..Adapter$LT$alloc..vec..Vec$LT$u8$GT$$GT$$GT$17h8c290d6f0bca7794E', symObjAddr: 0x2B0BC, symBinAddr: 0x2CF1C, symSize: 0x20 }
  - { offset: 0x20C6F, size: 0x8, addend: 0x0, symName: '__ZN4core3ptr46drop_in_place$LT$std..io..stdio..StdinLock$GT$17hbfffac18fffc2726E', symObjAddr: 0x2C9F4, symBinAddr: 0x2E6A8, symSize: 0x68 }
  - { offset: 0x20E04, size: 0x8, addend: 0x0, symName: '__ZN4core3ptr88drop_in_place$LT$alloc..vec..Vec$LT$std..backtrace_rs..symbolize..gimli..Library$GT$$GT$17h91ba9e2e855e83ceE', symObjAddr: 0x2CA5C, symBinAddr: 0x2E710, symSize: 0x80 }
  - { offset: 0x2104E, size: 0x8, addend: 0x0, symName: '__ZN4core3ptr104drop_in_place$LT$alloc..vec..Vec$LT$$LP$usize$C$std..backtrace_rs..symbolize..gimli..Mapping$RP$$GT$$GT$17h253534882523aad0E', symObjAddr: 0x2CADC, symBinAddr: 0x2E790, symSize: 0xAC }
  - { offset: 0x211F7, size: 0x8, addend: 0x0, symName: '__ZN4core3ptr95drop_in_place$LT$core..option..IntoIter$LT$std..backtrace_rs..symbolize..gimli..Library$GT$$GT$17ha944061dec8c7fd8E', symObjAddr: 0x2CC44, symBinAddr: 0x2E83C, symSize: 0x50 }
  - { offset: 0x21215, size: 0x8, addend: 0x0, symName: '__ZN4core3ptr95drop_in_place$LT$core..option..IntoIter$LT$std..backtrace_rs..symbolize..gimli..Library$GT$$GT$17ha944061dec8c7fd8E', symObjAddr: 0x2CC44, symBinAddr: 0x2E83C, symSize: 0x50 }
  - { offset: 0x2122A, size: 0x8, addend: 0x0, symName: '__ZN4core3ptr95drop_in_place$LT$core..option..IntoIter$LT$std..backtrace_rs..symbolize..gimli..Library$GT$$GT$17ha944061dec8c7fd8E', symObjAddr: 0x2CC44, symBinAddr: 0x2E83C, symSize: 0x50 }
  - { offset: 0x213C7, size: 0x8, addend: 0x0, symName: '__ZN4core3ptr65drop_in_place$LT$std..backtrace_rs..symbolize..gimli..Mapping$GT$17hdebbc932edf637b1E', symObjAddr: 0x2CD5C, symBinAddr: 0x2E954, symSize: 0x70 }
  - { offset: 0x21508, size: 0x8, addend: 0x0, symName: '__ZN4core3ptr70drop_in_place$LT$std..backtrace_rs..symbolize..gimli..stash..Stash$GT$17hfda4ee9ca87f1e17E', symObjAddr: 0x2CFA8, symBinAddr: 0x2EBA0, symSize: 0xA0 }
  - { offset: 0x21CAB, size: 0x8, addend: 0x0, symName: '__ZN4core3ptr86drop_in_place$LT$core..result..Result$LT$addr2line..Lines$C$gimli..read..Error$GT$$GT$17ha164628fd886a3ebE', symObjAddr: 0x328DC, symBinAddr: 0x344D4, symSize: 0xAC }
  - { offset: 0x21F0F, size: 0x8, addend: 0x0, symName: '__ZN4core3ptr275drop_in_place$LT$gimli..read..line..LineRows$LT$gimli..read..endian_slice..EndianSlice$LT$gimli..endianity..LittleEndian$GT$$C$gimli..read..line..IncompleteLineProgram$LT$gimli..read..endian_slice..EndianSlice$LT$gimli..endianity..LittleEndian$GT$$C$usize$GT$$C$usize$GT$$GT$17hc2f64fbb18e292e5E', symObjAddr: 0x32C4C, symBinAddr: 0x34844, symSize: 0x64 }
  - { offset: 0x221A3, size: 0x8, addend: 0x0, symName: '__ZN4core3ptr67drop_in_place$LT$alloc..vec..Vec$LT$addr2line..LineSequence$GT$$GT$17h900e9b805767614aE', symObjAddr: 0x32CB0, symBinAddr: 0x348A8, symSize: 0x70 }
  - { offset: 0x222FA, size: 0x8, addend: 0x0, symName: '__ZN4core3ptr77drop_in_place$LT$alloc..boxed..Box$LT$$u5b$alloc..string..String$u5d$$GT$$GT$17h2fa2f701f6afddedE', symObjAddr: 0x32D20, symBinAddr: 0x34918, symSize: 0x5C }
  - { offset: 0x22311, size: 0x8, addend: 0x0, symName: '__ZN4core3ptr77drop_in_place$LT$alloc..boxed..Box$LT$$u5b$alloc..string..String$u5d$$GT$$GT$17h2fa2f701f6afddedE', symObjAddr: 0x32D20, symBinAddr: 0x34918, symSize: 0x5C }
  - { offset: 0x2242B, size: 0x8, addend: 0x0, symName: '__ZN4core3ptr65drop_in_place$LT$alloc..vec..Vec$LT$alloc..string..String$GT$$GT$17h351373962ac2533cE', symObjAddr: 0x32FE8, symBinAddr: 0x34BE0, symSize: 0x70 }
  - { offset: 0x2277E, size: 0x8, addend: 0x0, symName: '__ZN4core3ptr174drop_in_place$LT$core..result..Result$LT$addr2line..FrameIter$LT$gimli..read..endian_slice..EndianSlice$LT$gimli..endianity..LittleEndian$GT$$GT$$C$gimli..read..Error$GT$$GT$17hded63d249d5899ceE', symObjAddr: 0x36294, symBinAddr: 0x37E8C, symSize: 0x34 }
  - { offset: 0x228CB, size: 0x8, addend: 0x0, symName: '__ZN4core3ptr250drop_in_place$LT$$LP$gimli..read..UnitOffset$C$addr2line..lazy..LazyCell$LT$core..result..Result$LT$addr2line..function..Function$LT$gimli..read..endian_slice..EndianSlice$LT$gimli..endianity..LittleEndian$GT$$GT$$C$gimli..read..Error$GT$$GT$$RP$$GT$17hc03c8ae24db21262E', symObjAddr: 0x37FA0, symBinAddr: 0x39B98, symSize: 0x50 }
  - { offset: 0x228E2, size: 0x8, addend: 0x0, symName: '__ZN4core3ptr250drop_in_place$LT$$LP$gimli..read..UnitOffset$C$addr2line..lazy..LazyCell$LT$core..result..Result$LT$addr2line..function..Function$LT$gimli..read..endian_slice..EndianSlice$LT$gimli..endianity..LittleEndian$GT$$GT$$C$gimli..read..Error$GT$$GT$$RP$$GT$17hc03c8ae24db21262E', symObjAddr: 0x37FA0, symBinAddr: 0x39B98, symSize: 0x50 }
  - { offset: 0x228F7, size: 0x8, addend: 0x0, symName: '__ZN4core3ptr250drop_in_place$LT$$LP$gimli..read..UnitOffset$C$addr2line..lazy..LazyCell$LT$core..result..Result$LT$addr2line..function..Function$LT$gimli..read..endian_slice..EndianSlice$LT$gimli..endianity..LittleEndian$GT$$GT$$C$gimli..read..Error$GT$$GT$$RP$$GT$17hc03c8ae24db21262E', symObjAddr: 0x37FA0, symBinAddr: 0x39B98, symSize: 0x50 }
  - { offset: 0x2290C, size: 0x8, addend: 0x0, symName: '__ZN4core3ptr250drop_in_place$LT$$LP$gimli..read..UnitOffset$C$addr2line..lazy..LazyCell$LT$core..result..Result$LT$addr2line..function..Function$LT$gimli..read..endian_slice..EndianSlice$LT$gimli..endianity..LittleEndian$GT$$GT$$C$gimli..read..Error$GT$$GT$$RP$$GT$17hc03c8ae24db21262E', symObjAddr: 0x37FA0, symBinAddr: 0x39B98, symSize: 0x50 }
  - { offset: 0x22A41, size: 0x8, addend: 0x0, symName: '__ZN4core3ptr273drop_in_place$LT$alloc..vec..Vec$LT$$LP$gimli..read..UnitOffset$C$addr2line..lazy..LazyCell$LT$core..result..Result$LT$addr2line..function..Function$LT$gimli..read..endian_slice..EndianSlice$LT$gimli..endianity..LittleEndian$GT$$GT$$C$gimli..read..Error$GT$$GT$$RP$$GT$$GT$17ha8abef46e58360eaE', symObjAddr: 0x38BE0, symBinAddr: 0x3A7D8, symSize: 0x8C }
  - { offset: 0x22C70, size: 0x8, addend: 0x0, symName: '__ZN4core3ptr285drop_in_place$LT$alloc..boxed..Box$LT$$u5b$$LP$gimli..read..UnitOffset$C$addr2line..lazy..LazyCell$LT$core..result..Result$LT$addr2line..function..Function$LT$gimli..read..endian_slice..EndianSlice$LT$gimli..endianity..LittleEndian$GT$$GT$$C$gimli..read..Error$GT$$GT$$RP$$u5d$$GT$$GT$17h6f16ee0bf76e2c5eE', symObjAddr: 0x38C6C, symBinAddr: 0x3A864, symSize: 0x78 }
  - { offset: 0x22C87, size: 0x8, addend: 0x0, symName: '__ZN4core3ptr285drop_in_place$LT$alloc..boxed..Box$LT$$u5b$$LP$gimli..read..UnitOffset$C$addr2line..lazy..LazyCell$LT$core..result..Result$LT$addr2line..function..Function$LT$gimli..read..endian_slice..EndianSlice$LT$gimli..endianity..LittleEndian$GT$$GT$$C$gimli..read..Error$GT$$GT$$RP$$u5d$$GT$$GT$17h6f16ee0bf76e2c5eE', symObjAddr: 0x38C6C, symBinAddr: 0x3A864, symSize: 0x78 }
  - { offset: 0x22E85, size: 0x8, addend: 0x0, symName: '__ZN4core3ptr184drop_in_place$LT$core..result..Result$LT$addr2line..function..Functions$LT$gimli..read..endian_slice..EndianSlice$LT$gimli..endianity..LittleEndian$GT$$GT$$C$gimli..read..Error$GT$$GT$17h37dd9e9767196236E', symObjAddr: 0x38CE4, symBinAddr: 0x3A8DC, symSize: 0x9C }
  - { offset: 0x2320F, size: 0x8, addend: 0x0, symName: '__ZN4core3ptr60drop_in_place$LT$gimli..read..abbrev..AbbreviationsCache$GT$17h195bc5886a3cba73E', symObjAddr: 0x3C574, symBinAddr: 0x3E16C, symSize: 0xBC }
  - { offset: 0x23470, size: 0x8, addend: 0x0, symName: '__ZN4core3ptr280drop_in_place$LT$$LT$alloc..collections..btree..map..IntoIter$LT$K$C$V$C$A$GT$$u20$as$u20$core..ops..drop..Drop$GT$..drop..DropGuard$LT$u64$C$core..result..Result$LT$alloc..sync..Arc$LT$gimli..read..abbrev..Abbreviations$GT$$C$gimli..read..Error$GT$$C$alloc..alloc..Global$GT$$GT$17h1439662b570573ffE', symObjAddr: 0x3C85C, symBinAddr: 0x3E454, symSize: 0x74 }
  - { offset: 0x235D4, size: 0x8, addend: 0x0, symName: '__ZN4core3ptr108drop_in_place$LT$alloc..collections..btree..map..BTreeMap$LT$u64$C$gimli..read..abbrev..Abbreviation$GT$$GT$17h9aafa9881d9e0790E', symObjAddr: 0x3C8D0, symBinAddr: 0x3E4C8, symSize: 0xA8 }
  - { offset: 0x237ED, size: 0x8, addend: 0x0, symName: '__ZN4core3ptr87drop_in_place$LT$alloc..sync..ArcInner$LT$std..sys..pal..unix..fs..InnerReadDir$GT$$GT$17h56e6c6dbab73e727E', symObjAddr: 0x3CFB8, symBinAddr: 0x3EB0C, symSize: 0x58 }
  - { offset: 0x239C9, size: 0x8, addend: 0x0, symName: '__ZN4core3ptr159drop_in_place$LT$alloc..sync..ArcInner$LT$gimli..read..dwarf..Dwarf$LT$gimli..read..endian_slice..EndianSlice$LT$gimli..endianity..LittleEndian$GT$$GT$$GT$$GT$17h3d3cc9cef00c82acE', symObjAddr: 0x3D15C, symBinAddr: 0x3ECB0, symSize: 0x5C }
  - { offset: 0x23AA2, size: 0x8, addend: 0x0, symName: '__ZN4core3ptr181drop_in_place$LT$core..option..Option$LT$gimli..read..line..IncompleteLineProgram$LT$gimli..read..endian_slice..EndianSlice$LT$gimli..endianity..LittleEndian$GT$$C$usize$GT$$GT$$GT$17hfda766512fe187a4E', symObjAddr: 0x3F5BC, symBinAddr: 0x41110, symSize: 0x70 }
  - { offset: 0x23D84, size: 0x8, addend: 0x0, symName: '__ZN4core3ptr123drop_in_place$LT$addr2line..ResUnit$LT$gimli..read..endian_slice..EndianSlice$LT$gimli..endianity..LittleEndian$GT$$GT$$GT$17h55eb63d7d70716ceE', symObjAddr: 0x3F6E8, symBinAddr: 0x4123C, symSize: 0xD0 }
  - { offset: 0x23F99, size: 0x8, addend: 0x0, symName: '__ZN4core3ptr137drop_in_place$LT$gimli..read..dwarf..Unit$LT$gimli..read..endian_slice..EndianSlice$LT$gimli..endianity..LittleEndian$GT$$C$usize$GT$$GT$17he80e5a2d4e297f7bE', symObjAddr: 0x3F7B8, symBinAddr: 0x4130C, symSize: 0x58 }
  - { offset: 0x24043, size: 0x8, addend: 0x0, symName: '__ZN4core3ptr146drop_in_place$LT$alloc..vec..Vec$LT$addr2line..ResUnit$LT$gimli..read..endian_slice..EndianSlice$LT$gimli..endianity..LittleEndian$GT$$GT$$GT$$GT$17h2f045312a0670fbbE', symObjAddr: 0x3F914, symBinAddr: 0x41468, symSize: 0xAC }
  - { offset: 0x241C7, size: 0x8, addend: 0x0, symName: '__ZN4core3ptr146drop_in_place$LT$alloc..vec..Vec$LT$addr2line..SupUnit$LT$gimli..read..endian_slice..EndianSlice$LT$gimli..endianity..LittleEndian$GT$$GT$$GT$$GT$17ha3d3d49b42524e49E', symObjAddr: 0x3F9C0, symBinAddr: 0x41514, symSize: 0x100 }
  - { offset: 0x243BE, size: 0x8, addend: 0x0, symName: '__ZN4core3ptr123drop_in_place$LT$addr2line..SupUnit$LT$gimli..read..endian_slice..EndianSlice$LT$gimli..endianity..LittleEndian$GT$$GT$$GT$17hf4b796c5b327f0d1E', symObjAddr: 0x3FB7C, symBinAddr: 0x416D0, symSize: 0x58 }
  - { offset: 0x2447E, size: 0x8, addend: 0x0, symName: '__ZN4core3ptr158drop_in_place$LT$alloc..boxed..Box$LT$$u5b$addr2line..ResUnit$LT$gimli..read..endian_slice..EndianSlice$LT$gimli..endianity..LittleEndian$GT$$GT$$u5d$$GT$$GT$17haeff567923c42315E', symObjAddr: 0x3FBD4, symBinAddr: 0x41728, symSize: 0x9C }
  - { offset: 0x24584, size: 0x8, addend: 0x0, symName: '__ZN4core3ptr71drop_in_place$LT$std..backtrace_rs..symbolize..gimli..macho..Object$GT$17hc9c9d4664f9fd6c6E', symObjAddr: 0x3FC70, symBinAddr: 0x417C4, symSize: 0x128 }
  - { offset: 0x248FA, size: 0x8, addend: 0x0, symName: '__ZN4core3ptr123drop_in_place$LT$addr2line..Context$LT$gimli..read..endian_slice..EndianSlice$LT$gimli..endianity..LittleEndian$GT$$GT$$GT$17h53ccf6acf3913804E', symObjAddr: 0x40478, symBinAddr: 0x41FCC, symSize: 0xF4 }
  - { offset: 0x24B82, size: 0x8, addend: 0x0, symName: '__ZN4core3ptr130drop_in_place$LT$gimli..read..dwarf..Dwarf$LT$gimli..read..endian_slice..EndianSlice$LT$gimli..endianity..LittleEndian$GT$$GT$$GT$17h042d8a4df53708fcE', symObjAddr: 0x4056C, symBinAddr: 0x420C0, symSize: 0x5C }
  - { offset: 0x24C17, size: 0x8, addend: 0x0, symName: '__ZN4core3ptr158drop_in_place$LT$alloc..boxed..Box$LT$$u5b$addr2line..SupUnit$LT$gimli..read..endian_slice..EndianSlice$LT$gimli..endianity..LittleEndian$GT$$GT$$u5d$$GT$$GT$17h7595630e3dbd339dE', symObjAddr: 0x405C8, symBinAddr: 0x4211C, symSize: 0xF0 }
  - { offset: 0x24E1F, size: 0x8, addend: 0x0, symName: '__ZN4core3ptr383drop_in_place$LT$core..result..Result$LT$core..option..Option$LT$alloc..boxed..Box$LT$$LP$alloc..sync..Arc$LT$gimli..read..dwarf..Dwarf$LT$gimli..read..endian_slice..EndianSlice$LT$gimli..endianity..LittleEndian$GT$$GT$$GT$$C$gimli..read..dwarf..Unit$LT$gimli..read..endian_slice..EndianSlice$LT$gimli..endianity..LittleEndian$GT$$C$usize$GT$$RP$$GT$$GT$$C$gimli..read..Error$GT$$GT$17h689b89efe2545051E', symObjAddr: 0x413A8, symBinAddr: 0x42EFC, symSize: 0xBC }
  - { offset: 0x25086, size: 0x8, addend: 0x0, symName: '__ZN4core3ptr55drop_in_place$LT$gimli..read..abbrev..Abbreviations$GT$17h3b916c846c1de88eE', symObjAddr: 0x41464, symBinAddr: 0x42FB8, symSize: 0x70 }
  - { offset: 0x25224, size: 0x8, addend: 0x0, symName: '__ZN4core3ptr84drop_in_place$LT$alloc..sync..ArcInner$LT$gimli..read..abbrev..Abbreviations$GT$$GT$17h6479223f060ebaa5E', symObjAddr: 0x414D4, symBinAddr: 0x43028, symSize: 0x70 }
  - { offset: 0x25413, size: 0x8, addend: 0x0, symName: '__ZN4core3ptr144drop_in_place$LT$alloc..vec..Vec$LT$core..option..Option$LT$core..option..Option$LT$std..backtrace_rs..symbolize..gimli..Mapping$GT$$GT$$GT$$GT$17h58401c526e8896beE', symObjAddr: 0x43670, symBinAddr: 0x451C4, symSize: 0x104 }
  - { offset: 0x25602, size: 0x8, addend: 0x0, symName: '__ZN4core3ptr44drop_in_place$LT$object..read..ObjectMap$GT$17h03e18fe98342abb3E', symObjAddr: 0x43E8C, symBinAddr: 0x4586C, symSize: 0x44 }
  - { offset: 0x2574E, size: 0x8, addend: 0x0, symName: '__ZN4core3ptr72drop_in_place$LT$core..option..Option$LT$object..read..ObjectMap$GT$$GT$17h9796204f57a7df34E', symObjAddr: 0x43ED0, symBinAddr: 0x458B0, symSize: 0x50 }
  - { offset: 0x25971, size: 0x8, addend: 0x0, symName: '__ZN4core3ptr71drop_in_place$LT$std..sync..rwlock..RwLockReadGuard$LT$$LP$$RP$$GT$$GT$17h45f1291f936a8561E', symObjAddr: 0x470AC, symBinAddr: 0x48940, symSize: 0x64 }
  - { offset: 0x25A12, size: 0x8, addend: 0x0, symName: '__ZN4core3ptr62drop_in_place$LT$std..sys..sync..rwlock..queue..PanicGuard$GT$17h113a9e410f86a791E', symObjAddr: 0x47420, symBinAddr: 0x48B80, symSize: 0x44 }
  - { offset: 0x25B4E, size: 0x8, addend: 0x0, symName: '__ZN4core3ptr215drop_in_place$LT$std..sys..thread_local..native..lazy..State$LT$core..cell..Cell$LT$core..option..Option$LT$alloc..sync..Arc$LT$std..sync..mutex..Mutex$LT$alloc..vec..Vec$LT$u8$GT$$GT$$GT$$GT$$GT$$C$$LP$$RP$$GT$$GT$17h123a451c0999642bE', symObjAddr: 0x480A8, symBinAddr: 0x4959C, symSize: 0x48 }
  - { offset: 0x25C0F, size: 0x8, addend: 0x0, symName: '__ZN4core3ptr46drop_in_place$LT$alloc..vec..Vec$LT$u8$GT$$GT$17h9055b3468c3a90fbE', symObjAddr: 0x48328, symBinAddr: 0x4981C, symSize: 0x24 }
  - { offset: 0x25DE2, size: 0x8, addend: 0x0, symName: '__ZN4core3ptr77drop_in_place$LT$std..panicking..begin_panic_handler..FormatStringPayload$GT$17h38dc2e09ecc99534E', symObjAddr: 0x4B45C, symBinAddr: 0x4C880, symSize: 0x30 }
  - { offset: 0x26C99, size: 0x8, addend: 0x0, symName: '__ZN4core3fmt3num50_$LT$impl$u20$core..fmt..Debug$u20$for$u20$i32$GT$3fmt17h4222a89e7c3e0e0aE.1718', symObjAddr: 0x2AF8C, symBinAddr: 0x2CE24, symSize: 0x34 }
  - { offset: 0x26CD4, size: 0x8, addend: 0x0, symName: '__ZN42_$LT$$RF$T$u20$as$u20$core..fmt..Debug$GT$3fmt17h3b73e6583801767eE', symObjAddr: 0x2A7B4, symBinAddr: 0x2C6A8, symSize: 0x38 }
  - { offset: 0x26D26, size: 0x8, addend: 0x0, symName: '__ZN42_$LT$$RF$T$u20$as$u20$core..fmt..Debug$GT$3fmt17h2aaad20b43826eebE', symObjAddr: 0x2AEF0, symBinAddr: 0x2CD88, symSize: 0x1C }
  - { offset: 0x26D56, size: 0x8, addend: 0x0, symName: '__ZN42_$LT$$RF$T$u20$as$u20$core..fmt..Debug$GT$3fmt17h491cf4e2a1ea3478E', symObjAddr: 0x2B540, symBinAddr: 0x2D32C, symSize: 0x38 }
  - { offset: 0x26DA1, size: 0x8, addend: 0x0, symName: __ZN4core3fmt5Write10write_char17h4afa267b4727c5caE, symObjAddr: 0x2B1D8, symBinAddr: 0x2D038, symSize: 0xC8 }
  - { offset: 0x26E23, size: 0x8, addend: 0x0, symName: __ZN4core3fmt5Write9write_fmt17h9c7d545dfbe2d12eE, symObjAddr: 0x2B2A0, symBinAddr: 0x2D100, symSize: 0x1C }
  - { offset: 0x26E51, size: 0x8, addend: 0x0, symName: __ZN4core3fmt5Write10write_char17he6d0f07de5990d16E, symObjAddr: 0x48168, symBinAddr: 0x4965C, symSize: 0x120 }
  - { offset: 0x26FAD, size: 0x8, addend: 0x0, symName: __ZN4core3fmt5Write9write_fmt17hcf479949d7634244E, symObjAddr: 0x48288, symBinAddr: 0x4977C, symSize: 0x1C }
  - { offset: 0x26FDB, size: 0x8, addend: 0x0, symName: __ZN4core3fmt5Write9write_fmt17h9b42472c3f68cf32E, symObjAddr: 0x4D550, symBinAddr: 0x4E974, symSize: 0x1C }
  - { offset: 0x27059, size: 0x8, addend: 0x0, symName: '__ZN50_$LT$$BP$mut$u20$T$u20$as$u20$core..fmt..Debug$GT$3fmt17h5e67231ba9d63223E', symObjAddr: 0x47944, symBinAddr: 0x490A4, symSize: 0x14 }
  - { offset: 0x270A5, size: 0x8, addend: 0x0, symName: '__ZN44_$LT$$RF$T$u20$as$u20$core..fmt..Display$GT$3fmt17h5cf39267766efe4eE', symObjAddr: 0x4C44C, symBinAddr: 0x4D870, symSize: 0x1C }
  - { offset: 0x2801E, size: 0x8, addend: 0x0, symName: '__ZN4core4cell4once17OnceCell$LT$T$GT$8try_init17hab9388e39b9c6b9cE', symObjAddr: 0x2A47C, symBinAddr: 0x85E48, symSize: 0xC0 }
  - { offset: 0x281F8, size: 0x8, addend: 0x0, symName: '__ZN4core4cell4once17OnceCell$LT$T$GT$8try_init17ha62e01f69ff2747dE', symObjAddr: 0x472EC, symBinAddr: 0x865A8, symSize: 0x134 }
  - { offset: 0x28639, size: 0x8, addend: 0x0, symName: '__ZN4core3ops8function6FnOnce40call_once$u7b$$u7b$vtable.shim$u7d$$u7d$17h79865b81aa81b353E', symObjAddr: 0x2B40C, symBinAddr: 0x2D26C, symSize: 0x18 }
  - { offset: 0x28688, size: 0x8, addend: 0x0, symName: '__ZN4core3ops8function6FnOnce40call_once$u7b$$u7b$vtable.shim$u7d$$u7d$17h994ca439da98670eE', symObjAddr: 0x2B43C, symBinAddr: 0x2D29C, symSize: 0x18 }
  - { offset: 0x2871F, size: 0x8, addend: 0x0, symName: '__ZN4core3ops8function6FnOnce40call_once$u7b$$u7b$vtable.shim$u7d$$u7d$17hd592a84a9295d8ecE', symObjAddr: 0x48814, symBinAddr: 0x49C38, symSize: 0x10 }
  - { offset: 0x28759, size: 0x8, addend: 0x0, symName: '__ZN4core3ops8function6FnOnce40call_once$u7b$$u7b$vtable.shim$u7d$$u7d$17hd1fe718e2d34421bE', symObjAddr: 0x4B48C, symBinAddr: 0x4C8B0, symSize: 0x9C }
  - { offset: 0x29EF9, size: 0x8, addend: 0x0, symName: __ZN4core9panicking13assert_failed17hc27d6c3511b5d1d6E, symObjAddr: 0x2A774, symBinAddr: 0x85F08, symSize: 0x40 }
  - { offset: 0x29F14, size: 0x8, addend: 0x0, symName: __ZN4core9panicking13assert_failed17he9351cc95ce6519fE, symObjAddr: 0x2B50C, symBinAddr: 0x8601C, symSize: 0x34 }
  - { offset: 0x2B290, size: 0x8, addend: 0x0, symName: __ZN4core5slice4sort8unstable7ipnsort17h63a80808be2104fcE, symObjAddr: 0x4382C, symBinAddr: 0x452C8, symSize: 0x19C }
  - { offset: 0x2B3AC, size: 0x8, addend: 0x0, symName: __ZN4core5slice4sort8unstable7ipnsort17h2442f5c112558902E, symObjAddr: 0x439C8, symBinAddr: 0x45464, symSize: 0x23C }
  - { offset: 0x2B6A6, size: 0x8, addend: 0x0, symName: __ZN4core5slice4sort8unstable9quicksort9quicksort17h418f976ec89ec23bE, symObjAddr: 0x44D14, symBinAddr: 0x466F4, symSize: 0x5D8 }
  - { offset: 0x2C27A, size: 0x8, addend: 0x0, symName: __ZN4core5slice4sort8unstable9quicksort9quicksort17he318a175fcd244c7E, symObjAddr: 0x45B44, symBinAddr: 0x47524, symSize: 0x454 }
  - { offset: 0x2CA70, size: 0x8, addend: 0x0, symName: __ZN4core5slice4sort8unstable8heapsort8heapsort17h4e18605dcb994e2dE, symObjAddr: 0x456CC, symBinAddr: 0x470AC, symSize: 0xC4 }
  - { offset: 0x2CB90, size: 0x8, addend: 0x0, symName: __ZN4core5slice4sort8unstable8heapsort9sift_down17h922cc2f373fe1854E, symObjAddr: 0x458C4, symBinAddr: 0x472A4, symSize: 0x100 }
  - { offset: 0x2CD4E, size: 0x8, addend: 0x0, symName: __ZN4core5slice4sort8unstable8heapsort8heapsort17hd699836665c92fd2E, symObjAddr: 0x46414, symBinAddr: 0x47DF4, symSize: 0xC4 }
  - { offset: 0x2CE6E, size: 0x8, addend: 0x0, symName: __ZN4core5slice4sort8unstable8heapsort9sift_down17hda1fe70450a6c562E, symObjAddr: 0x465A8, symBinAddr: 0x47F88, symSize: 0xAC }
  - { offset: 0x2D19A, size: 0x8, addend: 0x0, symName: __ZN4core5slice4sort6shared9smallsort12sort4_stable17h4b36114d0cf62b1cE, symObjAddr: 0x3B1B0, symBinAddr: 0x3CDA8, symSize: 0x174 }
  - { offset: 0x2D40D, size: 0x8, addend: 0x0, symName: __ZN4core5slice4sort6shared9smallsort12sort8_stable17hd333668ac110650cE, symObjAddr: 0x432EC, symBinAddr: 0x44E40, symSize: 0x2B8 }
  - { offset: 0x2D98E, size: 0x8, addend: 0x0, symName: __ZN4core5slice4sort6shared9smallsort18small_sort_general17h735d23473ea33dcbE, symObjAddr: 0x452EC, symBinAddr: 0x46CCC, symSize: 0x3E0 }
  - { offset: 0x2DE8B, size: 0x8, addend: 0x0, symName: __ZN4core5slice4sort6shared9smallsort12sort4_stable17h6bfca0ff923ae5feE, symObjAddr: 0x459C4, symBinAddr: 0x473A4, symSize: 0x180 }
  - { offset: 0x2E2B3, size: 0x8, addend: 0x0, symName: __ZN4core5slice4sort6shared9smallsort18small_sort_general17h8d5552a9d2883523E, symObjAddr: 0x45F98, symBinAddr: 0x47978, symSize: 0x47C }
  - { offset: 0x2E9B3, size: 0x8, addend: 0x0, symName: __ZN4core5slice4sort6shared5pivot11median3_rec17h74c340e2de7d3f46E, symObjAddr: 0x342E8, symBinAddr: 0x35EE0, symSize: 0xCC }
  - { offset: 0x2EAB7, size: 0x8, addend: 0x0, symName: __ZN4core5slice4sort6shared5pivot11median3_rec17h993fd65d12581bcbE, symObjAddr: 0x3B324, symBinAddr: 0x3CF1C, symSize: 0x11C }
  - { offset: 0x2EBBD, size: 0x8, addend: 0x0, symName: __ZN4core5slice4sort6shared5pivot11median3_rec17h8ec50b0412895b5dE, symObjAddr: 0x3C4A4, symBinAddr: 0x3E09C, symSize: 0xD0 }
  - { offset: 0x2ECC1, size: 0x8, addend: 0x0, symName: __ZN4core5slice4sort6shared5pivot11median3_rec17h77e0ad62818ec898E, symObjAddr: 0x412DC, symBinAddr: 0x42E30, symSize: 0xCC }
  - { offset: 0x2EDC5, size: 0x8, addend: 0x0, symName: __ZN4core5slice4sort6shared5pivot11median3_rec17hec6a1d8336dd3f3cE, symObjAddr: 0x435A4, symBinAddr: 0x450F8, symSize: 0xCC }
  - { offset: 0x2EF1F, size: 0x8, addend: 0x0, symName: __ZN4core5slice4sort6shared5pivot11median3_rec17h04b9d0d2112cd472E, symObjAddr: 0x44C44, symBinAddr: 0x46624, symSize: 0xD0 }
  - { offset: 0x2F023, size: 0x8, addend: 0x0, symName: __ZN4core5slice4sort6shared5pivot11median3_rec17had5f1afc4d5f0826E, symObjAddr: 0x45790, symBinAddr: 0x47170, symSize: 0x134 }
  - { offset: 0x2F253, size: 0x8, addend: 0x0, symName: __ZN4core5slice4sort6shared5pivot11median3_rec17h8b6c3d91de8681a0E, symObjAddr: 0x464D8, symBinAddr: 0x47EB8, symSize: 0xD0 }
  - { offset: 0x2F3CA, size: 0x8, addend: 0x0, symName: __ZN4core5slice4sort6stable14driftsort_main17hc743e19684df460aE, symObjAddr: 0x32D7C, symBinAddr: 0x34974, symSize: 0x10C }
  - { offset: 0x2F7BD, size: 0x8, addend: 0x0, symName: __ZN4core5slice4sort6stable5drift4sort17hafc962964f2cfd49E, symObjAddr: 0x33694, symBinAddr: 0x3528C, symSize: 0x5CC }
  - { offset: 0x2FF5D, size: 0x8, addend: 0x0, symName: __ZN4core5slice4sort6stable5drift4sort17hcd0fb6e3fdb9eb6bE, symObjAddr: 0x3A414, symBinAddr: 0x3C00C, symSize: 0x6A0 }
  - { offset: 0x30715, size: 0x8, addend: 0x0, symName: __ZN4core5slice4sort6stable5drift4sort17h31244dbc451ba8baE, symObjAddr: 0x3B730, symBinAddr: 0x3D328, symSize: 0x60C }
  - { offset: 0x30E4A, size: 0x8, addend: 0x0, symName: __ZN4core5slice4sort6stable5drift4sort17h8721754c57d72503E, symObjAddr: 0x406B8, symBinAddr: 0x4220C, symSize: 0x5C4 }
  - { offset: 0x3156B, size: 0x8, addend: 0x0, symName: __ZN4core5slice4sort6stable5drift4sort17hbdc7e067cbda2cd8E, symObjAddr: 0x42650, symBinAddr: 0x441A4, symSize: 0x4D4 }
  - { offset: 0x31C93, size: 0x8, addend: 0x0, symName: __ZN4core5slice4sort6stable5drift4sort17h6e53b4857e434db5E, symObjAddr: 0x43F20, symBinAddr: 0x45900, symSize: 0x538 }
  - { offset: 0x32656, size: 0x8, addend: 0x0, symName: __ZN4core5slice4sort6stable9quicksort9quicksort17ha653fad6ee02d569E, symObjAddr: 0x33C60, symBinAddr: 0x35858, symSize: 0x688 }
  - { offset: 0x33146, size: 0x8, addend: 0x0, symName: __ZN4core5slice4sort6stable9quicksort9quicksort17h2243574f1a68364bE, symObjAddr: 0x3AAB4, symBinAddr: 0x3C6AC, symSize: 0x6FC }
  - { offset: 0x338BA, size: 0x8, addend: 0x0, symName: __ZN4core5slice4sort6stable9quicksort9quicksort17h11530b40ef75c262E, symObjAddr: 0x3BD3C, symBinAddr: 0x3D934, symSize: 0x768 }
  - { offset: 0x3461C, size: 0x8, addend: 0x0, symName: __ZN4core5slice4sort6stable9quicksort9quicksort17hcc861ecc75d8adebE, symObjAddr: 0x40C7C, symBinAddr: 0x427D0, symSize: 0x660 }
  - { offset: 0x35251, size: 0x8, addend: 0x0, symName: __ZN4core5slice4sort6stable9quicksort9quicksort17h6880f0f0ae0b50d4E, symObjAddr: 0x42B24, symBinAddr: 0x44678, symSize: 0x7C8 }
  - { offset: 0x36343, size: 0x8, addend: 0x0, symName: __ZN4core5slice4sort6stable9quicksort9quicksort17h0bc42e398b639b0eE, symObjAddr: 0x44458, symBinAddr: 0x45E38, symSize: 0x7EC }
  - { offset: 0x36F93, size: 0x8, addend: 0x0, symName: __ZN4core5slice4sort6stable14driftsort_main17h18565bb5ae5fc96bE, symObjAddr: 0x362C8, symBinAddr: 0x37EC0, symSize: 0x114 }
  - { offset: 0x3724F, size: 0x8, addend: 0x0, symName: __ZN4core5slice4sort6stable14driftsort_main17h5c9294b13bc948daE, symObjAddr: 0x39D98, symBinAddr: 0x3B990, symSize: 0x104 }
  - { offset: 0x3750B, size: 0x8, addend: 0x0, symName: __ZN4core5slice4sort6stable14driftsort_main17ha409f2a72655ab3cE, symObjAddr: 0x3D454, symBinAddr: 0x3EFA8, symSize: 0x104 }
  - { offset: 0x377C7, size: 0x8, addend: 0x0, symName: __ZN4core5slice4sort6stable14driftsort_main17h00ea740f87881179E, symObjAddr: 0x3F810, symBinAddr: 0x41364, symSize: 0x104 }
  - { offset: 0x37A83, size: 0x8, addend: 0x0, symName: __ZN4core5slice4sort6stable14driftsort_main17h1787297776cbc813E, symObjAddr: 0x43C04, symBinAddr: 0x456A0, symSize: 0x114 }
  - { offset: 0x37E2F, size: 0x8, addend: 0x0, symName: '__ZN55_$LT$$RF$str$u20$as$u20$core..str..pattern..Pattern$GT$15is_contained_in17h4435c5a0eec1a737E', symObjAddr: 0x4B0DC, symBinAddr: 0x4C500, symSize: 0x380 }
  - { offset: 0x395EB, size: 0x8, addend: 0x0, symName: __ZN4core5panic12PanicPayload6as_str17h1f2fdb4782e520a0E, symObjAddr: 0x482B0, symBinAddr: 0x497A4, symSize: 0x14 }
  - { offset: 0x396A6, size: 0x8, addend: 0x0, symName: '__ZN36_$LT$T$u20$as$u20$core..any..Any$GT$7type_id17h26dc9e98dcc116acE', symObjAddr: 0x4D134, symBinAddr: 0x4E558, symSize: 0x30 }
  - { offset: 0x396BF, size: 0x8, addend: 0x0, symName: '__ZN36_$LT$T$u20$as$u20$core..any..Any$GT$7type_id17h2481823241ef5a5eE', symObjAddr: 0x4D364, symBinAddr: 0x4E788, symSize: 0x30 }
  - { offset: 0x397C3, size: 0x8, addend: 0x0, symName: '__ZN5alloc4sync16Arc$LT$T$C$A$GT$9drop_slow17h39a5917f4d7fdd95E', symObjAddr: 0x2A53C, symBinAddr: 0x2C470, symSize: 0x74 }
  - { offset: 0x399FA, size: 0x8, addend: 0x0, symName: '__ZN5alloc4sync16Arc$LT$T$C$A$GT$9drop_slow17hbfc05961fd2cc5eaE', symObjAddr: 0x2B048, symBinAddr: 0x2CEA8, symSize: 0x3C }
  - { offset: 0x39BA6, size: 0x8, addend: 0x0, symName: '__ZN5alloc4sync16Arc$LT$T$C$A$GT$9drop_slow17hbbbc9526cd5f2494E', symObjAddr: 0x304B8, symBinAddr: 0x320B0, symSize: 0x84 }
  - { offset: 0x39EC5, size: 0x8, addend: 0x0, symName: '__ZN5alloc4sync16Arc$LT$T$C$A$GT$9drop_slow17h29edeeddbdff6215E', symObjAddr: 0x34B98, symBinAddr: 0x36790, symSize: 0xB0 }
  - { offset: 0x3A093, size: 0x8, addend: 0x0, symName: '__ZN5alloc4sync16Arc$LT$T$C$A$GT$9drop_slow17hd72512d6ca5eee4dE', symObjAddr: 0x3C7B0, symBinAddr: 0x3E3A8, symSize: 0xAC }
  - { offset: 0x3A35D, size: 0x8, addend: 0x0, symName: '__ZN5alloc4sync16Arc$LT$T$C$A$GT$9drop_slow17h3cfe0c594dfb021aE', symObjAddr: 0x47FD0, symBinAddr: 0x494C4, symSize: 0x8C }
  - { offset: 0x3B48A, size: 0x8, addend: 0x0, symName: '__ZN5alloc7raw_vec19RawVec$LT$T$C$A$GT$8grow_one17h111f858b591129f7E', symObjAddr: 0x2A6CC, symBinAddr: 0x2C600, symSize: 0xA8 }
  - { offset: 0x3B649, size: 0x8, addend: 0x0, symName: '__ZN5alloc7raw_vec19RawVec$LT$T$C$A$GT$8grow_one17hc9e68aa1c8981acfE', symObjAddr: 0x2CC94, symBinAddr: 0x2E88C, symSize: 0xC8 }
  - { offset: 0x3BBB3, size: 0x8, addend: 0x0, symName: '__ZN5alloc7raw_vec19RawVec$LT$T$C$A$GT$8grow_one17h25873754c127e39cE', symObjAddr: 0x32BA4, symBinAddr: 0x3479C, symSize: 0xA8 }
  - { offset: 0x3BD15, size: 0x8, addend: 0x0, symName: '__ZN5alloc7raw_vec19RawVec$LT$T$C$A$GT$8grow_one17h0a6f82c7ec224786E', symObjAddr: 0x32E88, symBinAddr: 0x34A80, symSize: 0xB8 }
  - { offset: 0x3BE5F, size: 0x8, addend: 0x0, symName: '__ZN5alloc7raw_vec19RawVec$LT$T$C$A$GT$8grow_one17h783cfe0233c2c686E', symObjAddr: 0x32F40, symBinAddr: 0x34B38, symSize: 0xA8 }
  - { offset: 0x3C0F9, size: 0x8, addend: 0x0, symName: '__ZN5alloc7raw_vec19RawVec$LT$T$C$A$GT$8grow_one17h63b6a703b9cd7bf4E', symObjAddr: 0x37EE4, symBinAddr: 0x39ADC, symSize: 0xBC }
  - { offset: 0x3C29C, size: 0x8, addend: 0x0, symName: '__ZN5alloc7raw_vec19RawVec$LT$T$C$A$GT$8grow_one17hcb8b8c9a1628bbffE', symObjAddr: 0x3B440, symBinAddr: 0x3D038, symSize: 0xB8 }
  - { offset: 0x3C40D, size: 0x8, addend: 0x0, symName: '__ZN5alloc7raw_vec19RawVec$LT$T$C$A$GT$8grow_one17h8436c1b7cb10ac4fE', symObjAddr: 0x3CAF8, symBinAddr: 0x3E6F0, symSize: 0xA8 }
  - { offset: 0x3C589, size: 0x8, addend: 0x0, symName: '__ZN5alloc7raw_vec19RawVec$LT$T$C$A$GT$8grow_one17h3b18bb389b18f86dE', symObjAddr: 0x3F62C, symBinAddr: 0x41180, symSize: 0xBC }
  - { offset: 0x3C6EB, size: 0x8, addend: 0x0, symName: '__ZN5alloc7raw_vec19RawVec$LT$T$C$A$GT$8grow_one17h28b8804c7bd49e0fE', symObjAddr: 0x3FAC0, symBinAddr: 0x41614, symSize: 0xBC }
  - { offset: 0x3C85B, size: 0x8, addend: 0x0, symName: '__ZN5alloc7raw_vec19RawVec$LT$T$C$A$GT$8grow_one17he685c0e2db5e0d3fE', symObjAddr: 0x425A8, symBinAddr: 0x440FC, symSize: 0xA8 }
  - { offset: 0x3C9D7, size: 0x8, addend: 0x0, symName: '__ZN5alloc7raw_vec19RawVec$LT$T$C$A$GT$8grow_one17h75dff49665ba074bE', symObjAddr: 0x43D18, symBinAddr: 0x457B4, symSize: 0xB8 }
  - { offset: 0x3CCCB, size: 0x8, addend: 0x0, symName: '__ZN5alloc7raw_vec19RawVec$LT$T$C$A$GT$8grow_one17hf8ab8dac8b9e3ea0E', symObjAddr: 0x4D56C, symBinAddr: 0x4E990, symSize: 0x9C }
  - { offset: 0x3CF62, size: 0x8, addend: 0x0, symName: '__ZN5alloc7raw_vec19RawVec$LT$T$C$A$GT$7reserve21do_reserve_and_handle17h8ce13c2a5addf58eE', symObjAddr: 0x2C8BC, symBinAddr: 0x86050, symSize: 0x9C }
  - { offset: 0x3D07C, size: 0x8, addend: 0x0, symName: '__ZN5alloc7raw_vec19RawVec$LT$T$C$A$GT$7reserve21do_reserve_and_handle17h9b2233567c2eced7E', symObjAddr: 0x2CB88, symBinAddr: 0x86188, symSize: 0xBC }
  - { offset: 0x3D1AC, size: 0x8, addend: 0x0, symName: '__ZN5alloc7raw_vec19RawVec$LT$T$C$A$GT$7reserve21do_reserve_and_handle17hfd6241453cea34ddE', symObjAddr: 0x43774, symBinAddr: 0x862E8, symSize: 0xB8 }
  - { offset: 0x3D2DD, size: 0x8, addend: 0x0, symName: '__ZN5alloc7raw_vec19RawVec$LT$T$C$A$GT$7reserve21do_reserve_and_handle17hf58c83ead0cd0ea3E', symObjAddr: 0x43DD0, symBinAddr: 0x863A0, symSize: 0xBC }
  - { offset: 0x3D6A4, size: 0x8, addend: 0x0, symName: '__ZN58_$LT$alloc..string..String$u20$as$u20$core..fmt..Debug$GT$3fmt17h73852553c5b08b95E.1717', symObjAddr: 0x2AF30, symBinAddr: 0x2CDC8, symSize: 0x20 }
  - { offset: 0x3D77D, size: 0x8, addend: 0x0, symName: '__ZN60_$LT$alloc..string..String$u20$as$u20$core..fmt..Display$GT$3fmt17h0956531b748f31a7E.1739', symObjAddr: 0x46B60, symBinAddr: 0x48488, symSize: 0x1C }
  - { offset: 0x3D80A, size: 0x8, addend: 0x0, symName: '__ZN58_$LT$alloc..string..String$u20$as$u20$core..fmt..Write$GT$9write_str17h66397e8869c81ea8E.1772', symObjAddr: 0x4D394, symBinAddr: 0x4E7B8, symSize: 0x78 }
  - { offset: 0x3D922, size: 0x8, addend: 0x0, symName: '__ZN58_$LT$alloc..string..String$u20$as$u20$core..fmt..Write$GT$10write_char17hf975c7b3bfbf111eE.1773', symObjAddr: 0x4D40C, symBinAddr: 0x4E830, symSize: 0x144 }
  - { offset: 0x3DE18, size: 0x8, addend: 0x0, symName: '__ZN5alloc11collections5btree3map25IntoIter$LT$K$C$V$C$A$GT$10dying_next17h3a85406856f4a655E', symObjAddr: 0x3C630, symBinAddr: 0x3E228, symSize: 0x180 }
  - { offset: 0x3E29C, size: 0x8, addend: 0x0, symName: '__ZN5alloc11collections5btree3map25IntoIter$LT$K$C$V$C$A$GT$10dying_next17h93a4b9636a6cbfd1E', symObjAddr: 0x3C978, symBinAddr: 0x3E570, symSize: 0x180 }
  - { offset: 0x3EF43, size: 0x8, addend: 0x0, symName: __ZN6object4read7archive13ArchiveMember5parse17h72d9d4c2bc756f9eE, symObjAddr: 0x30CE0, symBinAddr: 0x328D8, symSize: 0x514 }
  - { offset: 0x3FBF1, size: 0x8, addend: 0x0, symName: '__ZN5gimli4read5dwarf14Dwarf$LT$R$GT$11attr_string17hdc336fb99bf0d4f8E', symObjAddr: 0x334AC, symBinAddr: 0x350A4, symSize: 0x1E8 }
  - { offset: 0x403B5, size: 0x8, addend: 0x0, symName: '__ZN5gimli4read5dwarf13Unit$LT$R$GT$3new17h2f32b863b93bb7d1E', symObjAddr: 0x3DA2C, symBinAddr: 0x3F580, symSize: 0x1B90 }
  - { offset: 0x43ED2, size: 0x8, addend: 0x0, symName: '__ZN5gimli4read7aranges30ArangeHeader$LT$R$C$Offset$GT$5parse17h8f8cfc5f396a389fE', symObjAddr: 0x3D1B8, symBinAddr: 0x3ED0C, symSize: 0x29C }
  - { offset: 0x4480D, size: 0x8, addend: 0x0, symName: '__ZN5gimli4read4unit22EntriesCursor$LT$R$GT$10next_entry17h1986b072e07920f5E', symObjAddr: 0x3CBA0, symBinAddr: 0x3E798, symSize: 0x2AC }
  - { offset: 0x44EA1, size: 0x8, addend: 0x0, symName: '__ZN5gimli4read4unit18Attribute$LT$R$GT$5value17h4bef509303bc3e98E', symObjAddr: 0x37FF0, symBinAddr: 0x39BE8, symSize: 0x6FC }
  - { offset: 0x456AE, size: 0x8, addend: 0x0, symName: __ZN5gimli4read4unit15parse_attribute17hd667926d8309a96dE, symObjAddr: 0x3700C, symBinAddr: 0x38C04, symSize: 0xED8 }
  - { offset: 0x483A2, size: 0x8, addend: 0x0, symName: '__ZN5gimli4read4unit32AttributeValue$LT$R$C$Offset$GT$11udata_value17h1b863a48266930edE', symObjAddr: 0x3B4F8, symBinAddr: 0x3D0F0, symSize: 0x90 }
  - { offset: 0x483B6, size: 0x8, addend: 0x0, symName: __ZN5gimli4read4unit15skip_attributes17h01ce1e3f4b32955eE, symObjAddr: 0x386EC, symBinAddr: 0x3A2E4, symSize: 0x4F4 }
  - { offset: 0x48DB6, size: 0x8, addend: 0x0, symName: '__ZN5gimli4read4unit33DebugInfoUnitHeadersIter$LT$R$GT$4next17h8055189295e4a52eE', symObjAddr: 0x3D558, symBinAddr: 0x3F0AC, symSize: 0x4D4 }
  - { offset: 0x4A001, size: 0x8, addend: 0x0, symName: __ZN5gimli4read6reader6Reader12read_sleb12817h8c193e8c4109b509E, symObjAddr: 0x32988, symBinAddr: 0x34580, symSize: 0x21C }
  - { offset: 0x4A113, size: 0x8, addend: 0x0, symName: __ZN5gimli4read6reader6Reader17read_sized_offset17h3d1a418b42b4c8e1E, symObjAddr: 0x3B588, symBinAddr: 0x3D180, symSize: 0xEC }
  - { offset: 0x4A4D9, size: 0x8, addend: 0x0, symName: __ZN5gimli4read6reader6Reader11read_offset17h2fbb215798632d22E, symObjAddr: 0x3B674, symBinAddr: 0x3D26C, symSize: 0xBC }
  - { offset: 0x4A742, size: 0x8, addend: 0x0, symName: __ZN5gimli4read6reader6Reader12read_uleb12817h2e0a65ff477ce085E, symObjAddr: 0x417E0, symBinAddr: 0x43334, symSize: 0xA4 }
  - { offset: 0x4AA87, size: 0x8, addend: 0x0, symName: '__ZN5gimli4read8rnglists20RngListIter$LT$R$GT$4next17h2b23938a9c0a0aedE', symObjAddr: 0x363DC, symBinAddr: 0x37FD4, symSize: 0xC30 }
  - { offset: 0x4D47E, size: 0x8, addend: 0x0, symName: '__ZN93_$LT$gimli..read..line..LineProgramHeader$LT$R$C$Offset$GT$$u20$as$u20$core..clone..Clone$GT$5clone17h2a2028d3e36e149eE', symObjAddr: 0x311F4, symBinAddr: 0x32DEC, symSize: 0x39C }
  - { offset: 0x4DD7D, size: 0x8, addend: 0x0, symName: '__ZN5gimli4read4line27FileEntry$LT$R$C$Offset$GT$5parse17h90f15f9ba42287d5E', symObjAddr: 0x41BDC, symBinAddr: 0x43730, symSize: 0x1EC }
  - { offset: 0x4E0A0, size: 0x8, addend: 0x0, symName: __ZN5gimli4read4line15FileEntryFormat5parse17h3419766682620ea2E, symObjAddr: 0x41544, symBinAddr: 0x43098, symSize: 0x29C }
  - { offset: 0x4E879, size: 0x8, addend: 0x0, symName: __ZN5gimli4read4line18parse_directory_v517h647a3fb0699c5455E, symObjAddr: 0x41884, symBinAddr: 0x433D8, symSize: 0xE4 }
  - { offset: 0x4E90A, size: 0x8, addend: 0x0, symName: __ZN5gimli4read4line13parse_file_v517h6cbd184f8f588e88E, symObjAddr: 0x41968, symBinAddr: 0x434BC, symSize: 0x274 }
  - { offset: 0x4EA82, size: 0x8, addend: 0x0, symName: __ZN5gimli4read4line15parse_attribute17h62c553aa78ff80a8E, symObjAddr: 0x41DC8, symBinAddr: 0x4391C, symSize: 0x7E0 }
  - { offset: 0x5020E, size: 0x8, addend: 0x0, symName: '__ZN5gimli4read5index18UnitIndex$LT$R$GT$5parse17h3d04c5d44ccafc6fE', symObjAddr: 0x3FD98, symBinAddr: 0x418EC, symSize: 0x6E0 }
  - { offset: 0x50D02, size: 0x8, addend: 0x0, symName: '__ZN9addr2line16ResUnit$LT$R$GT$25find_function_or_location28_$u7b$$u7b$closure$u7d$$u7d$17hcf48833de8cdb227E', symObjAddr: 0x34C48, symBinAddr: 0x36840, symSize: 0x164C }
  - { offset: 0x5366C, size: 0x8, addend: 0x0, symName: '__ZN9addr2line30LoopingLookup$LT$T$C$L$C$F$GT$10new_lookup17h1b8c7d2397acf852E', symObjAddr: 0x3476C, symBinAddr: 0x36364, symSize: 0x42C }
  - { offset: 0x53ADD, size: 0x8, addend: 0x0, symName: '__ZN9addr2line16ResUnit$LT$R$GT$25find_function_or_location17haa3ed919743cd82fE', symObjAddr: 0x343B4, symBinAddr: 0x35FAC, symSize: 0x3B8 }
  - { offset: 0x53EBD, size: 0x8, addend: 0x0, symName: '__ZN9addr2line18FrameIter$LT$R$GT$4next17h69b9d1cea7966287E', symObjAddr: 0x30A20, symBinAddr: 0x32618, symSize: 0x2C0 }
  - { offset: 0x54391, size: 0x8, addend: 0x0, symName: __ZN9addr2line5Lines5parse17h85db6edc57a8d3e6E, symObjAddr: 0x31590, symBinAddr: 0x33188, symSize: 0x134C }
  - { offset: 0x56EB8, size: 0x8, addend: 0x0, symName: __ZN9addr2line11render_file17hd016e35e076f997cE, symObjAddr: 0x33058, symBinAddr: 0x34C50, symSize: 0x454 }
  - { offset: 0x577B5, size: 0x8, addend: 0x0, symName: '__ZN9addr2line8function17Function$LT$R$GT$14parse_children17ha0549df4a5a15f8aE', symObjAddr: 0x38D80, symBinAddr: 0x3A978, symSize: 0x1018 }
  - { offset: 0x58D25, size: 0x8, addend: 0x0, symName: __ZN9addr2line8function9name_attr17hff231709cc90da5fE, symObjAddr: 0x39E9C, symBinAddr: 0x3BA94, symSize: 0x208 }
  - { offset: 0x58FBB, size: 0x8, addend: 0x0, symName: __ZN9addr2line8function10name_entry17h28f6b73dd0c2cc08E, symObjAddr: 0x3A0A4, symBinAddr: 0x3BC9C, symSize: 0x370 }
  - { offset: 0x64ED7, size: 0x8, addend: 0x0, symName: __ZN6memchr6memchr8fallback6memchr17h5820fa50ce7971d0E, symObjAddr: 0x1E868, symBinAddr: 0x21758, symSize: 0x12C }
  - { offset: 0x64F25, size: 0x8, addend: 0x0, symName: __ZN6memchr6memchr8fallback6memchr17h5820fa50ce7971d0E, symObjAddr: 0x1E868, symBinAddr: 0x21758, symSize: 0x12C }
  - { offset: 0x65201, size: 0x8, addend: 0x0, symName: __aarch64_cas1_relax, symObjAddr: 0x0, symBinAddr: 0x82AC0, symSize: 0x30 }
  - { offset: 0x65235, size: 0x8, addend: 0x0, symName: __aarch64_cas1_acq, symObjAddr: 0x0, symBinAddr: 0x82AF0, symSize: 0x30 }
  - { offset: 0x65269, size: 0x8, addend: 0x0, symName: __aarch64_cas1_rel, symObjAddr: 0x0, symBinAddr: 0x82B20, symSize: 0x30 }
  - { offset: 0x6529D, size: 0x8, addend: 0x0, symName: __aarch64_cas1_acq_rel, symObjAddr: 0x0, symBinAddr: 0x82B50, symSize: 0x30 }
  - { offset: 0x652D1, size: 0x8, addend: 0x0, symName: __aarch64_cas2_relax, symObjAddr: 0x0, symBinAddr: 0x82B80, symSize: 0x30 }
  - { offset: 0x65305, size: 0x8, addend: 0x0, symName: __aarch64_cas2_acq, symObjAddr: 0x0, symBinAddr: 0x82BB0, symSize: 0x30 }
  - { offset: 0x65339, size: 0x8, addend: 0x0, symName: __aarch64_cas2_rel, symObjAddr: 0x0, symBinAddr: 0x82BE0, symSize: 0x30 }
  - { offset: 0x6536D, size: 0x8, addend: 0x0, symName: __aarch64_cas2_acq_rel, symObjAddr: 0x0, symBinAddr: 0x82C10, symSize: 0x30 }
  - { offset: 0x653A1, size: 0x8, addend: 0x0, symName: __aarch64_cas4_relax, symObjAddr: 0x0, symBinAddr: 0x82C40, symSize: 0x30 }
  - { offset: 0x653D5, size: 0x8, addend: 0x0, symName: __aarch64_cas4_acq, symObjAddr: 0x0, symBinAddr: 0x82C70, symSize: 0x30 }
  - { offset: 0x65409, size: 0x8, addend: 0x0, symName: __aarch64_cas4_rel, symObjAddr: 0x0, symBinAddr: 0x82CA0, symSize: 0x30 }
  - { offset: 0x6543D, size: 0x8, addend: 0x0, symName: __aarch64_cas4_acq_rel, symObjAddr: 0x0, symBinAddr: 0x82CD0, symSize: 0x30 }
  - { offset: 0x65471, size: 0x8, addend: 0x0, symName: __aarch64_cas8_relax, symObjAddr: 0x0, symBinAddr: 0x82D00, symSize: 0x30 }
  - { offset: 0x654A5, size: 0x8, addend: 0x0, symName: __aarch64_cas8_acq, symObjAddr: 0x0, symBinAddr: 0x82D30, symSize: 0x30 }
  - { offset: 0x654D9, size: 0x8, addend: 0x0, symName: __aarch64_cas8_rel, symObjAddr: 0x0, symBinAddr: 0x82D60, symSize: 0x30 }
  - { offset: 0x6550D, size: 0x8, addend: 0x0, symName: __aarch64_cas8_acq_rel, symObjAddr: 0x0, symBinAddr: 0x82D90, symSize: 0x30 }
  - { offset: 0x65541, size: 0x8, addend: 0x0, symName: __aarch64_cas16_relax, symObjAddr: 0x0, symBinAddr: 0x82DC0, symSize: 0x38 }
  - { offset: 0x65575, size: 0x8, addend: 0x0, symName: __aarch64_cas16_acq, symObjAddr: 0x0, symBinAddr: 0x82E00, symSize: 0x38 }
  - { offset: 0x655A9, size: 0x8, addend: 0x0, symName: __aarch64_cas16_rel, symObjAddr: 0x0, symBinAddr: 0x82E40, symSize: 0x38 }
  - { offset: 0x655DD, size: 0x8, addend: 0x0, symName: __aarch64_cas16_acq_rel, symObjAddr: 0x0, symBinAddr: 0x82E80, symSize: 0x38 }
  - { offset: 0x65611, size: 0x8, addend: 0x0, symName: __aarch64_swp1_relax, symObjAddr: 0x0, symBinAddr: 0x82EC0, symSize: 0x28 }
  - { offset: 0x65645, size: 0x8, addend: 0x0, symName: __aarch64_swp1_acq, symObjAddr: 0x0, symBinAddr: 0x82EF0, symSize: 0x28 }
  - { offset: 0x65679, size: 0x8, addend: 0x0, symName: __aarch64_swp1_rel, symObjAddr: 0x0, symBinAddr: 0x82F20, symSize: 0x28 }
  - { offset: 0x656AD, size: 0x8, addend: 0x0, symName: __aarch64_swp1_acq_rel, symObjAddr: 0x0, symBinAddr: 0x82F50, symSize: 0x28 }
  - { offset: 0x656E1, size: 0x8, addend: 0x0, symName: __aarch64_swp2_relax, symObjAddr: 0x0, symBinAddr: 0x82F80, symSize: 0x28 }
  - { offset: 0x65715, size: 0x8, addend: 0x0, symName: __aarch64_swp2_acq, symObjAddr: 0x0, symBinAddr: 0x82FB0, symSize: 0x28 }
  - { offset: 0x65749, size: 0x8, addend: 0x0, symName: __aarch64_swp2_rel, symObjAddr: 0x0, symBinAddr: 0x82FE0, symSize: 0x28 }
  - { offset: 0x6577D, size: 0x8, addend: 0x0, symName: __aarch64_swp2_acq_rel, symObjAddr: 0x0, symBinAddr: 0x83010, symSize: 0x28 }
  - { offset: 0x657B1, size: 0x8, addend: 0x0, symName: __aarch64_swp4_relax, symObjAddr: 0x0, symBinAddr: 0x83040, symSize: 0x28 }
  - { offset: 0x657E5, size: 0x8, addend: 0x0, symName: __aarch64_swp4_acq, symObjAddr: 0x0, symBinAddr: 0x83070, symSize: 0x28 }
  - { offset: 0x65819, size: 0x8, addend: 0x0, symName: __aarch64_swp4_rel, symObjAddr: 0x0, symBinAddr: 0x830A0, symSize: 0x28 }
  - { offset: 0x6584D, size: 0x8, addend: 0x0, symName: __aarch64_swp4_acq_rel, symObjAddr: 0x0, symBinAddr: 0x830D0, symSize: 0x28 }
  - { offset: 0x65881, size: 0x8, addend: 0x0, symName: __aarch64_swp8_relax, symObjAddr: 0x0, symBinAddr: 0x83100, symSize: 0x28 }
  - { offset: 0x658B5, size: 0x8, addend: 0x0, symName: __aarch64_swp8_acq, symObjAddr: 0x0, symBinAddr: 0x83130, symSize: 0x28 }
  - { offset: 0x658E9, size: 0x8, addend: 0x0, symName: __aarch64_swp8_rel, symObjAddr: 0x0, symBinAddr: 0x83160, symSize: 0x28 }
  - { offset: 0x6591D, size: 0x8, addend: 0x0, symName: __aarch64_swp8_acq_rel, symObjAddr: 0x0, symBinAddr: 0x83190, symSize: 0x28 }
  - { offset: 0x65951, size: 0x8, addend: 0x0, symName: __aarch64_ldadd1_relax, symObjAddr: 0x0, symBinAddr: 0x831C0, symSize: 0x2C }
  - { offset: 0x65985, size: 0x8, addend: 0x0, symName: __aarch64_ldadd1_acq, symObjAddr: 0x0, symBinAddr: 0x831F0, symSize: 0x2C }
  - { offset: 0x659B9, size: 0x8, addend: 0x0, symName: __aarch64_ldadd1_rel, symObjAddr: 0x0, symBinAddr: 0x83220, symSize: 0x2C }
  - { offset: 0x659ED, size: 0x8, addend: 0x0, symName: __aarch64_ldadd1_acq_rel, symObjAddr: 0x0, symBinAddr: 0x83250, symSize: 0x2C }
  - { offset: 0x65A21, size: 0x8, addend: 0x0, symName: __aarch64_ldadd2_relax, symObjAddr: 0x0, symBinAddr: 0x83280, symSize: 0x2C }
  - { offset: 0x65A55, size: 0x8, addend: 0x0, symName: __aarch64_ldadd2_acq, symObjAddr: 0x0, symBinAddr: 0x832B0, symSize: 0x2C }
  - { offset: 0x65A89, size: 0x8, addend: 0x0, symName: __aarch64_ldadd2_rel, symObjAddr: 0x0, symBinAddr: 0x832E0, symSize: 0x2C }
  - { offset: 0x65ABD, size: 0x8, addend: 0x0, symName: __aarch64_ldadd2_acq_rel, symObjAddr: 0x0, symBinAddr: 0x83310, symSize: 0x2C }
  - { offset: 0x65AF1, size: 0x8, addend: 0x0, symName: __aarch64_ldadd4_relax, symObjAddr: 0x0, symBinAddr: 0x83340, symSize: 0x2C }
  - { offset: 0x65B25, size: 0x8, addend: 0x0, symName: __aarch64_ldadd4_acq, symObjAddr: 0x0, symBinAddr: 0x83370, symSize: 0x2C }
  - { offset: 0x65B59, size: 0x8, addend: 0x0, symName: __aarch64_ldadd4_rel, symObjAddr: 0x0, symBinAddr: 0x833A0, symSize: 0x2C }
  - { offset: 0x65B8D, size: 0x8, addend: 0x0, symName: __aarch64_ldadd4_acq_rel, symObjAddr: 0x0, symBinAddr: 0x833D0, symSize: 0x2C }
  - { offset: 0x65BC1, size: 0x8, addend: 0x0, symName: __aarch64_ldadd8_relax, symObjAddr: 0x0, symBinAddr: 0x83400, symSize: 0x2C }
  - { offset: 0x65BF5, size: 0x8, addend: 0x0, symName: __aarch64_ldadd8_acq, symObjAddr: 0x0, symBinAddr: 0x83430, symSize: 0x2C }
  - { offset: 0x65C29, size: 0x8, addend: 0x0, symName: __aarch64_ldadd8_rel, symObjAddr: 0x0, symBinAddr: 0x83460, symSize: 0x2C }
  - { offset: 0x65C5D, size: 0x8, addend: 0x0, symName: __aarch64_ldadd8_acq_rel, symObjAddr: 0x0, symBinAddr: 0x83490, symSize: 0x2C }
  - { offset: 0x65C91, size: 0x8, addend: 0x0, symName: __aarch64_ldclr1_relax, symObjAddr: 0x0, symBinAddr: 0x834C0, symSize: 0x2C }
  - { offset: 0x65CC5, size: 0x8, addend: 0x0, symName: __aarch64_ldclr1_acq, symObjAddr: 0x0, symBinAddr: 0x834F0, symSize: 0x2C }
  - { offset: 0x65CF9, size: 0x8, addend: 0x0, symName: __aarch64_ldclr1_rel, symObjAddr: 0x0, symBinAddr: 0x83520, symSize: 0x2C }
  - { offset: 0x65D2D, size: 0x8, addend: 0x0, symName: __aarch64_ldclr1_acq_rel, symObjAddr: 0x0, symBinAddr: 0x83550, symSize: 0x2C }
  - { offset: 0x65D61, size: 0x8, addend: 0x0, symName: __aarch64_ldclr2_relax, symObjAddr: 0x0, symBinAddr: 0x83580, symSize: 0x2C }
  - { offset: 0x65D95, size: 0x8, addend: 0x0, symName: __aarch64_ldclr2_acq, symObjAddr: 0x0, symBinAddr: 0x835B0, symSize: 0x2C }
  - { offset: 0x65DC9, size: 0x8, addend: 0x0, symName: __aarch64_ldclr2_rel, symObjAddr: 0x0, symBinAddr: 0x835E0, symSize: 0x2C }
  - { offset: 0x65DFD, size: 0x8, addend: 0x0, symName: __aarch64_ldclr2_acq_rel, symObjAddr: 0x0, symBinAddr: 0x83610, symSize: 0x2C }
  - { offset: 0x65E31, size: 0x8, addend: 0x0, symName: __aarch64_ldclr4_relax, symObjAddr: 0x0, symBinAddr: 0x83640, symSize: 0x2C }
  - { offset: 0x65E65, size: 0x8, addend: 0x0, symName: __aarch64_ldclr4_acq, symObjAddr: 0x0, symBinAddr: 0x83670, symSize: 0x2C }
  - { offset: 0x65E99, size: 0x8, addend: 0x0, symName: __aarch64_ldclr4_rel, symObjAddr: 0x0, symBinAddr: 0x836A0, symSize: 0x2C }
  - { offset: 0x65ECD, size: 0x8, addend: 0x0, symName: __aarch64_ldclr4_acq_rel, symObjAddr: 0x0, symBinAddr: 0x836D0, symSize: 0x2C }
  - { offset: 0x65F01, size: 0x8, addend: 0x0, symName: __aarch64_ldclr8_relax, symObjAddr: 0x0, symBinAddr: 0x83700, symSize: 0x2C }
  - { offset: 0x65F35, size: 0x8, addend: 0x0, symName: __aarch64_ldclr8_acq, symObjAddr: 0x0, symBinAddr: 0x83730, symSize: 0x2C }
  - { offset: 0x65F69, size: 0x8, addend: 0x0, symName: __aarch64_ldclr8_rel, symObjAddr: 0x0, symBinAddr: 0x83760, symSize: 0x2C }
  - { offset: 0x65F9D, size: 0x8, addend: 0x0, symName: __aarch64_ldclr8_acq_rel, symObjAddr: 0x0, symBinAddr: 0x83790, symSize: 0x2C }
  - { offset: 0x65FD1, size: 0x8, addend: 0x0, symName: __aarch64_ldeor1_relax, symObjAddr: 0x0, symBinAddr: 0x837C0, symSize: 0x2C }
  - { offset: 0x66005, size: 0x8, addend: 0x0, symName: __aarch64_ldeor1_acq, symObjAddr: 0x0, symBinAddr: 0x837F0, symSize: 0x2C }
  - { offset: 0x66039, size: 0x8, addend: 0x0, symName: __aarch64_ldeor1_rel, symObjAddr: 0x0, symBinAddr: 0x83820, symSize: 0x2C }
  - { offset: 0x6606D, size: 0x8, addend: 0x0, symName: __aarch64_ldeor1_acq_rel, symObjAddr: 0x0, symBinAddr: 0x83850, symSize: 0x2C }
  - { offset: 0x660A1, size: 0x8, addend: 0x0, symName: __aarch64_ldeor2_relax, symObjAddr: 0x0, symBinAddr: 0x83880, symSize: 0x2C }
  - { offset: 0x660D5, size: 0x8, addend: 0x0, symName: __aarch64_ldeor2_acq, symObjAddr: 0x0, symBinAddr: 0x838B0, symSize: 0x2C }
  - { offset: 0x66109, size: 0x8, addend: 0x0, symName: __aarch64_ldeor2_rel, symObjAddr: 0x0, symBinAddr: 0x838E0, symSize: 0x2C }
  - { offset: 0x6613D, size: 0x8, addend: 0x0, symName: __aarch64_ldeor2_acq_rel, symObjAddr: 0x0, symBinAddr: 0x83910, symSize: 0x2C }
  - { offset: 0x66171, size: 0x8, addend: 0x0, symName: __aarch64_ldeor4_relax, symObjAddr: 0x0, symBinAddr: 0x83940, symSize: 0x2C }
  - { offset: 0x661A5, size: 0x8, addend: 0x0, symName: __aarch64_ldeor4_acq, symObjAddr: 0x0, symBinAddr: 0x83970, symSize: 0x2C }
  - { offset: 0x661D9, size: 0x8, addend: 0x0, symName: __aarch64_ldeor4_rel, symObjAddr: 0x0, symBinAddr: 0x839A0, symSize: 0x2C }
  - { offset: 0x6620D, size: 0x8, addend: 0x0, symName: __aarch64_ldeor4_acq_rel, symObjAddr: 0x0, symBinAddr: 0x839D0, symSize: 0x2C }
  - { offset: 0x66241, size: 0x8, addend: 0x0, symName: __aarch64_ldeor8_relax, symObjAddr: 0x0, symBinAddr: 0x83A00, symSize: 0x2C }
  - { offset: 0x66275, size: 0x8, addend: 0x0, symName: __aarch64_ldeor8_acq, symObjAddr: 0x0, symBinAddr: 0x83A30, symSize: 0x2C }
  - { offset: 0x662A9, size: 0x8, addend: 0x0, symName: __aarch64_ldeor8_rel, symObjAddr: 0x0, symBinAddr: 0x83A60, symSize: 0x2C }
  - { offset: 0x662DD, size: 0x8, addend: 0x0, symName: __aarch64_ldeor8_acq_rel, symObjAddr: 0x0, symBinAddr: 0x83A90, symSize: 0x2C }
  - { offset: 0x66311, size: 0x8, addend: 0x0, symName: __aarch64_ldset1_relax, symObjAddr: 0x0, symBinAddr: 0x83AC0, symSize: 0x2C }
  - { offset: 0x66345, size: 0x8, addend: 0x0, symName: __aarch64_ldset1_acq, symObjAddr: 0x0, symBinAddr: 0x83AF0, symSize: 0x2C }
  - { offset: 0x66379, size: 0x8, addend: 0x0, symName: __aarch64_ldset1_rel, symObjAddr: 0x0, symBinAddr: 0x83B20, symSize: 0x2C }
  - { offset: 0x663AD, size: 0x8, addend: 0x0, symName: __aarch64_ldset1_acq_rel, symObjAddr: 0x0, symBinAddr: 0x83B50, symSize: 0x2C }
  - { offset: 0x663E1, size: 0x8, addend: 0x0, symName: __aarch64_ldset2_relax, symObjAddr: 0x0, symBinAddr: 0x83B80, symSize: 0x2C }
  - { offset: 0x66415, size: 0x8, addend: 0x0, symName: __aarch64_ldset2_acq, symObjAddr: 0x0, symBinAddr: 0x83BB0, symSize: 0x2C }
  - { offset: 0x66449, size: 0x8, addend: 0x0, symName: __aarch64_ldset2_rel, symObjAddr: 0x0, symBinAddr: 0x83BE0, symSize: 0x2C }
  - { offset: 0x6647D, size: 0x8, addend: 0x0, symName: __aarch64_ldset2_acq_rel, symObjAddr: 0x0, symBinAddr: 0x83C10, symSize: 0x2C }
  - { offset: 0x664B1, size: 0x8, addend: 0x0, symName: __aarch64_ldset4_relax, symObjAddr: 0x0, symBinAddr: 0x83C40, symSize: 0x2C }
  - { offset: 0x664E5, size: 0x8, addend: 0x0, symName: __aarch64_ldset4_acq, symObjAddr: 0x0, symBinAddr: 0x83C70, symSize: 0x2C }
  - { offset: 0x66519, size: 0x8, addend: 0x0, symName: __aarch64_ldset4_rel, symObjAddr: 0x0, symBinAddr: 0x83CA0, symSize: 0x2C }
  - { offset: 0x6654D, size: 0x8, addend: 0x0, symName: __aarch64_ldset4_acq_rel, symObjAddr: 0x0, symBinAddr: 0x83CD0, symSize: 0x2C }
  - { offset: 0x66581, size: 0x8, addend: 0x0, symName: __aarch64_ldset8_relax, symObjAddr: 0x0, symBinAddr: 0x83D00, symSize: 0x2C }
  - { offset: 0x665B5, size: 0x8, addend: 0x0, symName: __aarch64_ldset8_acq, symObjAddr: 0x0, symBinAddr: 0x83D30, symSize: 0x2C }
  - { offset: 0x665E9, size: 0x8, addend: 0x0, symName: __aarch64_ldset8_rel, symObjAddr: 0x0, symBinAddr: 0x83D60, symSize: 0x2C }
  - { offset: 0x6661D, size: 0x8, addend: 0x0, symName: __aarch64_ldset8_acq_rel, symObjAddr: 0x0, symBinAddr: 0x83D90, symSize: 0x2C }
  - { offset: 0x6665C, size: 0x8, addend: 0x0, symName: ___aarch64_have_lse_atomics, symObjAddr: 0x1838, symBinAddr: 0xAE368, symSize: 0x0 }
  - { offset: 0x666C4, size: 0x8, addend: 0x0, symName: _super_native_extensionsVersionString, symObjAddr: 0x0, symBinAddr: 0x93488, symSize: 0x0 }
  - { offset: 0x666FA, size: 0x8, addend: 0x0, symName: _super_native_extensionsVersionNumber, symObjAddr: 0x38, symBinAddr: 0x934C0, symSize: 0x0 }
  - { offset: 0x66737, size: 0x8, addend: 0x0, symName: '+[SuperNativeExtensionsPlugin initialize]', symObjAddr: 0x0, symBinAddr: 0x83DBC, symSize: 0x4 }
  - { offset: 0x667A5, size: 0x8, addend: 0x0, symName: '+[SuperNativeExtensionsPlugin initialize]', symObjAddr: 0x0, symBinAddr: 0x83DBC, symSize: 0x4 }
  - { offset: 0x667D7, size: 0x8, addend: 0x0, symName: '+[SuperNativeExtensionsPlugin initialize]', symObjAddr: 0x0, symBinAddr: 0x83DBC, symSize: 0x4 }
  - { offset: 0x667EA, size: 0x8, addend: 0x0, symName: '+[SuperNativeExtensionsPlugin registerWithRegistrar:]', symObjAddr: 0x4, symBinAddr: 0x83DC0, symSize: 0x4 }
  - { offset: 0x66825, size: 0x8, addend: 0x0, symName: '+[SNEDeletingPresenter deleteAfterRead:]', symObjAddr: 0x8, symBinAddr: 0x83DC4, symSize: 0x5C }
  - { offset: 0x66874, size: 0x8, addend: 0x0, symName: '-[SNEDeletingPresenter initWithURL:]', symObjAddr: 0x64, symBinAddr: 0x83E20, symSize: 0x94 }
  - { offset: 0x668BB, size: 0x8, addend: 0x0, symName: '-[SNEDeletingPresenter presentedItemURL]', symObjAddr: 0xF8, symBinAddr: 0x83EB4, symSize: 0x8 }
  - { offset: 0x668F2, size: 0x8, addend: 0x0, symName: '-[SNEDeletingPresenter presentedItemOperationQueue]', symObjAddr: 0x100, symBinAddr: 0x83EBC, symSize: 0x8 }
  - { offset: 0x66929, size: 0x8, addend: 0x0, symName: '-[SNEDeletingPresenter relinquishPresentedItemToReader:]', symObjAddr: 0x108, symBinAddr: 0x83EC4, symSize: 0x58 }
  - { offset: 0x66988, size: 0x8, addend: 0x0, symName: '___56-[SNEDeletingPresenter relinquishPresentedItemToReader:]_block_invoke', symObjAddr: 0x160, symBinAddr: 0x83F1C, symSize: 0x98 }
  - { offset: 0x66A0A, size: 0x8, addend: 0x0, symName: ___copy_helper_block_e8_32s, symObjAddr: 0x1F8, symBinAddr: 0x83FB4, symSize: 0x8 }
  - { offset: 0x66A31, size: 0x8, addend: 0x0, symName: ___destroy_helper_block_e8_32s, symObjAddr: 0x200, symBinAddr: 0x83FBC, symSize: 0x8 }
  - { offset: 0x66A50, size: 0x8, addend: 0x0, symName: '-[SNEDeletingPresenter .cxx_destruct]', symObjAddr: 0x208, symBinAddr: 0x83FC4, symSize: 0x30 }
...
